
GccApplication10.elf:     file format elf32-avr

Sections:
Idx Name          Size      VMA       LMA       File off  Algn
  0 .data         000001a2  00800100  00002b0c  00002ba0  2**0
                  CONTENTS, ALLOC, LOAD, DATA
  1 .text         00002b0c  00000000  00000000  00000094  2**1
                  CONTENTS, ALLOC, LOAD, READONLY, CODE
  2 .bss          00000119  008002a2  008002a2  00002d42  2**0
                  ALLOC
  3 .stab         00003d68  00000000  00000000  00002d44  2**2
                  CONTENTS, READONLY, DEBUGGING
  4 .stabstr      00000ae7  00000000  00000000  00006aac  2**0
                  CONTENTS, READONLY, DEBUGGING
  5 .debug_aranges 00000220  00000000  00000000  00007598  2**3
                  CONTENTS, READONLY, DEBUGGING
  6 .debug_info   00002785  00000000  00000000  000077b8  2**0
                  CONTENTS, READONLY, DEBUGGING
  7 .debug_abbrev 00000ac4  00000000  00000000  00009f3d  2**0
                  CONTENTS, READONLY, DEBUGGING
  8 .debug_line   00001677  00000000  00000000  0000aa01  2**0
                  CONTENTS, READONLY, DEBUGGING
  9 .debug_frame  0000044c  00000000  00000000  0000c078  2**2
                  CONTENTS, READONLY, DEBUGGING
 10 .debug_str    00000776  00000000  00000000  0000c4c4  2**0
                  CONTENTS, READONLY, DEBUGGING
 11 .debug_loc    0000195d  00000000  00000000  0000cc3a  2**0
                  CONTENTS, READONLY, DEBUGGING
 12 .debug_ranges 00000070  00000000  00000000  0000e597  2**0
                  CONTENTS, READONLY, DEBUGGING

Disassembly of section .text:

00000000 <__vectors>:
       0:	0c 94 de 00 	jmp	0x1bc	; 0x1bc <__ctors_end>
       4:	0c 94 fb 00 	jmp	0x1f6	; 0x1f6 <__bad_interrupt>
       8:	0c 94 fb 00 	jmp	0x1f6	; 0x1f6 <__bad_interrupt>
       c:	0c 94 fb 00 	jmp	0x1f6	; 0x1f6 <__bad_interrupt>
      10:	0c 94 fb 00 	jmp	0x1f6	; 0x1f6 <__bad_interrupt>
      14:	0c 94 fb 00 	jmp	0x1f6	; 0x1f6 <__bad_interrupt>
      18:	0c 94 fb 00 	jmp	0x1f6	; 0x1f6 <__bad_interrupt>
      1c:	0c 94 05 0d 	jmp	0x1a0a	; 0x1a0a <__vector_7>
      20:	0c 94 fb 00 	jmp	0x1f6	; 0x1f6 <__bad_interrupt>
      24:	0c 94 fb 00 	jmp	0x1f6	; 0x1f6 <__bad_interrupt>
      28:	0c 94 fb 00 	jmp	0x1f6	; 0x1f6 <__bad_interrupt>
      2c:	0c 94 fb 00 	jmp	0x1f6	; 0x1f6 <__bad_interrupt>
      30:	0c 94 fb 00 	jmp	0x1f6	; 0x1f6 <__bad_interrupt>
      34:	0c 94 fb 00 	jmp	0x1f6	; 0x1f6 <__bad_interrupt>
      38:	0c 94 99 02 	jmp	0x532	; 0x532 <__vector_14>
      3c:	0c 94 fb 00 	jmp	0x1f6	; 0x1f6 <__bad_interrupt>
      40:	0c 94 fb 00 	jmp	0x1f6	; 0x1f6 <__bad_interrupt>
      44:	0c 94 fb 00 	jmp	0x1f6	; 0x1f6 <__bad_interrupt>
      48:	0c 94 fb 00 	jmp	0x1f6	; 0x1f6 <__bad_interrupt>
      4c:	0c 94 fb 00 	jmp	0x1f6	; 0x1f6 <__bad_interrupt>
      50:	0c 94 fb 00 	jmp	0x1f6	; 0x1f6 <__bad_interrupt>
      54:	0c 94 fb 00 	jmp	0x1f6	; 0x1f6 <__bad_interrupt>
      58:	0c 94 fb 00 	jmp	0x1f6	; 0x1f6 <__bad_interrupt>
      5c:	0c 94 fb 00 	jmp	0x1f6	; 0x1f6 <__bad_interrupt>
      60:	0c 94 fb 00 	jmp	0x1f6	; 0x1f6 <__bad_interrupt>
      64:	0c 94 fb 00 	jmp	0x1f6	; 0x1f6 <__bad_interrupt>
      68:	08 00       	.word	0x0008	; ????
      6a:	00 00       	nop
      6c:	be 92       	st	-X, r11
      6e:	24 49       	sbci	r18, 0x94	; 148
      70:	12 3e       	cpi	r17, 0xE2	; 226
      72:	ab aa       	sts	0x9b, r26
      74:	aa 2a       	or	r10, r26
      76:	be cd       	rjmp	.-1156   	; 0xfffffbf4 <__eeprom_end+0xff7efbf4>
      78:	cc cc       	rjmp	.-1640   	; 0xfffffa12 <__eeprom_end+0xff7efa12>
      7a:	4c 3e       	cpi	r20, 0xEC	; 236
      7c:	00 00       	nop
      7e:	00 80       	ld	r0, Z
      80:	be ab       	sts	0x5e, r27
      82:	aa aa       	sts	0x9a, r26
      84:	aa 3e       	cpi	r26, 0xEA	; 234
      86:	00 00       	nop
      88:	00 00       	nop
      8a:	bf 00       	.word	0x00bf	; ????
      8c:	00 00       	nop
      8e:	80 3f       	cpi	r24, 0xF0	; 240
      90:	00 00       	nop
      92:	00 00       	nop
      94:	00 08       	sbc	r0, r0
      96:	41 78       	andi	r20, 0x81	; 129
      98:	d3 bb       	out	0x13, r29	; 19
      9a:	43 87       	std	Z+11, r20	; 0x0b
      9c:	d1 13       	cpse	r29, r17
      9e:	3d 19       	sub	r19, r13
      a0:	0e 3c       	cpi	r16, 0xCE	; 206
      a2:	c3 bd       	out	0x23, r28	; 35
      a4:	42 82       	std	Z+2, r4	; 0x02
      a6:	ad 2b       	or	r26, r29
      a8:	3e 68       	ori	r19, 0x8E	; 142
      aa:	ec 82       	std	Y+4, r14	; 0x04
      ac:	76 be       	out	0x36, r7	; 54
      ae:	d9 8f       	std	Y+25, r29	; 0x19
      b0:	e1 a9       	sts	0x41, r30
      b2:	3e 4c       	sbci	r19, 0xCE	; 206
      b4:	80 ef       	ldi	r24, 0xF0	; 240
      b6:	ff be       	out	0x3f, r15	; 63
      b8:	01 c4       	rjmp	.+2050   	; 0x8bc <main+0x66>
      ba:	ff 7f       	andi	r31, 0xFF	; 255
      bc:	3f 00       	.word	0x003f	; ????
      be:	00 00       	nop
      c0:	00 00       	nop
      c2:	00 40       	sbci	r16, 0x00	; 0
      c4:	7a 10       	cpse	r7, r10
      c6:	f3 5a       	subi	r31, 0xA3	; 163
      c8:	00 a0       	lds	r16, 0x00
      ca:	72 4e       	sbci	r23, 0xE2	; 226
      cc:	18 09       	sbc	r17, r8
      ce:	00 10       	cpse	r0, r0
      d0:	a5 d4       	rcall	.+2378   	; 0xa1c <__stack+0x11d>
      d2:	e8 00       	.word	0x00e8	; ????
      d4:	00 e8       	ldi	r16, 0x80	; 128
      d6:	76 48       	sbci	r23, 0x86	; 134
      d8:	17 00       	.word	0x0017	; ????
      da:	00 e4       	ldi	r16, 0x40	; 64
      dc:	0b 54       	subi	r16, 0x4B	; 75
      de:	02 00       	.word	0x0002	; ????
      e0:	00 ca       	rjmp	.-3072   	; 0xfffff4e2 <__eeprom_end+0xff7ef4e2>
      e2:	9a 3b       	cpi	r25, 0xBA	; 186
      e4:	00 00       	nop
      e6:	00 e1       	ldi	r16, 0x10	; 16
      e8:	f5 05       	cpc	r31, r5
      ea:	00 00       	nop
      ec:	80 96       	adiw	r24, 0x20	; 32
      ee:	98 00       	.word	0x0098	; ????
      f0:	00 00       	nop
      f2:	40 42       	sbci	r20, 0x20	; 32
      f4:	0f 00       	.word	0x000f	; ????
      f6:	00 00       	nop
      f8:	a0 86       	std	Z+8, r10	; 0x08
      fa:	01 00       	.word	0x0001	; ????
      fc:	00 00       	nop
      fe:	10 27       	eor	r17, r16
     100:	00 00       	nop
     102:	00 00       	nop
     104:	e8 03       	fmulsu	r22, r16
     106:	00 00       	nop
     108:	00 00       	nop
     10a:	64 00       	.word	0x0064	; ????
     10c:	00 00       	nop
     10e:	00 00       	nop
     110:	0a 00       	.word	0x000a	; ????
     112:	00 00       	nop
     114:	00 00       	nop
     116:	01 00       	.word	0x0001	; ????
     118:	00 00       	nop
     11a:	00 00       	nop
     11c:	2c 76       	andi	r18, 0x6C	; 108
     11e:	d8 88       	ldd	r13, Y+16	; 0x10
     120:	dc 67       	ori	r29, 0x7C	; 124
     122:	4f 08       	sbc	r4, r15
     124:	23 df       	rcall	.-442    	; 0xffffff6c <__eeprom_end+0xff7eff6c>
     126:	c1 df       	rcall	.-126    	; 0xaa <__SREG__+0x6b>
     128:	ae 59       	subi	r26, 0x9E	; 158
     12a:	e1 b1       	in	r30, 0x01	; 1
     12c:	b7 96       	adiw	r30, 0x27	; 39
     12e:	e5 e3       	ldi	r30, 0x35	; 53
     130:	e4 53       	subi	r30, 0x34	; 52
     132:	c6 3a       	cpi	r28, 0xA6	; 166
     134:	e6 51       	subi	r30, 0x16	; 22
     136:	99 76       	andi	r25, 0x69	; 105
     138:	96 e8       	ldi	r25, 0x86	; 134
     13a:	e6 c2       	rjmp	.+1484   	; 0x708 <__vector_14+0x1d6>
     13c:	84 26       	eor	r8, r20
     13e:	eb 89       	ldd	r30, Y+19	; 0x13
     140:	8c 9b       	sbis	0x11, 4	; 17
     142:	62 ed       	ldi	r22, 0xD2	; 210
     144:	40 7c       	andi	r20, 0xC0	; 192
     146:	6f fc       	.word	0xfc6f	; ????
     148:	ef bc       	out	0x2f, r14	; 47
     14a:	9c 9f       	mul	r25, r28
     14c:	40 f2       	brcs	.-112    	; 0xde <__SREG__+0x9f>
     14e:	ba a5       	lds	r27, 0x6a
     150:	6f a5       	lds	r22, 0x6f
     152:	f4 90       	lpm	r15, Z
     154:	05 5a       	subi	r16, 0xA5	; 165
     156:	2a f7       	brpl	.-54     	; 0x122 <__SREG__+0xe3>
     158:	5c 93       	st	X, r21
     15a:	6b 6c       	ori	r22, 0xCB	; 203
     15c:	f9 67       	ori	r31, 0x79	; 121
     15e:	6d c1       	rjmp	.+730    	; 0x43a <init+0x36>
     160:	1b fc       	.word	0xfc1b	; ????
     162:	e0 e4       	ldi	r30, 0x40	; 64
     164:	0d 47       	sbci	r16, 0x7D	; 125
     166:	fe f5       	brtc	.+126    	; 0x1e6 <.do_clear_bss_loop>
     168:	20 e6       	ldi	r18, 0x60	; 96
     16a:	b5 00       	.word	0x00b5	; ????
     16c:	d0 ed       	ldi	r29, 0xD0	; 208
     16e:	90 2e       	mov	r9, r16
     170:	03 00       	.word	0x0003	; ????
     172:	94 35       	cpi	r25, 0x54	; 84
     174:	77 05       	cpc	r23, r7
     176:	00 80       	ld	r0, Z
     178:	84 1e       	adc	r8, r20
     17a:	08 00       	.word	0x0008	; ????
     17c:	00 20       	and	r0, r0
     17e:	4e 0a       	sbc	r4, r30
     180:	00 00       	nop
     182:	00 c8       	rjmp	.-4096   	; 0xfffff184 <__eeprom_end+0xff7ef184>
     184:	0c 33       	cpi	r16, 0x3C	; 60
     186:	33 33       	cpi	r19, 0x33	; 51
     188:	33 0f       	add	r19, r19
     18a:	98 6e       	ori	r25, 0xE8	; 232
     18c:	12 83       	std	Z+2, r17	; 0x02
     18e:	11 41       	sbci	r17, 0x11	; 17
     190:	ef 8d       	ldd	r30, Y+31	; 0x1f
     192:	21 14       	cp	r2, r1
     194:	89 3b       	cpi	r24, 0xB9	; 185
     196:	e6 55       	subi	r30, 0x56	; 86
     198:	16 cf       	rjmp	.-468    	; 0xffffffc6 <__eeprom_end+0xff7effc6>
     19a:	fe e6       	ldi	r31, 0x6E	; 110
     19c:	db 18       	sub	r13, r11
     19e:	d1 84       	ldd	r13, Z+9	; 0x09
     1a0:	4b 38       	cpi	r20, 0x8B	; 139
     1a2:	1b f7       	brvc	.-58     	; 0x16a <__SREG__+0x12b>
     1a4:	7c 1d       	adc	r23, r12
     1a6:	90 1d       	adc	r25, r0
     1a8:	a4 bb       	out	0x14, r26	; 20
     1aa:	e4 24       	eor	r14, r4
     1ac:	20 32       	cpi	r18, 0x20	; 32
     1ae:	84 72       	andi	r24, 0x24	; 36
     1b0:	5e 22       	and	r5, r30
     1b2:	81 00       	.word	0x0081	; ????
     1b4:	c9 f1       	breq	.+114    	; 0x228 <InitializeUART0+0x2e>
     1b6:	24 ec       	ldi	r18, 0xC4	; 196
     1b8:	a1 e5       	ldi	r26, 0x51	; 81
     1ba:	3d 27       	eor	r19, r29

000001bc <__ctors_end>:
     1bc:	11 24       	eor	r1, r1
     1be:	1f be       	out	0x3f, r1	; 63
     1c0:	cf ef       	ldi	r28, 0xFF	; 255
     1c2:	d8 e0       	ldi	r29, 0x08	; 8
     1c4:	de bf       	out	0x3e, r29	; 62
     1c6:	cd bf       	out	0x3d, r28	; 61

000001c8 <__do_copy_data>:
     1c8:	12 e0       	ldi	r17, 0x02	; 2
     1ca:	a0 e0       	ldi	r26, 0x00	; 0
     1cc:	b1 e0       	ldi	r27, 0x01	; 1
     1ce:	ec e0       	ldi	r30, 0x0C	; 12
     1d0:	fb e2       	ldi	r31, 0x2B	; 43
     1d2:	02 c0       	rjmp	.+4      	; 0x1d8 <__do_copy_data+0x10>
     1d4:	05 90       	lpm	r0, Z+
     1d6:	0d 92       	st	X+, r0
     1d8:	a2 3a       	cpi	r26, 0xA2	; 162
     1da:	b1 07       	cpc	r27, r17
     1dc:	d9 f7       	brne	.-10     	; 0x1d4 <__do_copy_data+0xc>

000001de <__do_clear_bss>:
     1de:	13 e0       	ldi	r17, 0x03	; 3
     1e0:	a2 ea       	ldi	r26, 0xA2	; 162
     1e2:	b2 e0       	ldi	r27, 0x02	; 2
     1e4:	01 c0       	rjmp	.+2      	; 0x1e8 <.do_clear_bss_start>

000001e6 <.do_clear_bss_loop>:
     1e6:	1d 92       	st	X+, r1

000001e8 <.do_clear_bss_start>:
     1e8:	ab 3b       	cpi	r26, 0xBB	; 187
     1ea:	b1 07       	cpc	r27, r17
     1ec:	e1 f7       	brne	.-8      	; 0x1e6 <.do_clear_bss_loop>
     1ee:	0e 94 2b 04 	call	0x856	; 0x856 <main>
     1f2:	0c 94 84 15 	jmp	0x2b08	; 0x2b08 <_exit>

000001f6 <__bad_interrupt>:
     1f6:	0c 94 00 00 	jmp	0	; 0x0 <__vectors>

000001fa <InitializeUART0>:
uint16_t adc_result_a2, adc_result_a3;
float adc_result_a0, adc_result_a1;
int percent = 0;

void InitializeUART0(int baud,char AsyncDoubleSpeed, char DataSizeInBits, char ParityEVENorODD, char StopBits, char USARTinterruptEnable)
{
     1fa:	ef 92       	push	r14
     1fc:	0f 93       	push	r16
     1fe:	1f 93       	push	r17
     200:	cf 93       	push	r28
     202:	df 93       	push	r29
     204:	16 2f       	mov	r17, r22
     206:	c4 2f       	mov	r28, r20
     208:	d2 2f       	mov	r29, r18
	uint16_t UBBRValue = lrint( ( F_CPU / (16L * baud) ) - 1);
     20a:	aa 27       	eor	r26, r26
     20c:	97 fd       	sbrc	r25, 7
     20e:	a0 95       	com	r26
     210:	ba 2f       	mov	r27, r26
     212:	88 0f       	add	r24, r24
     214:	99 1f       	adc	r25, r25
     216:	aa 1f       	adc	r26, r26
     218:	bb 1f       	adc	r27, r27
     21a:	88 0f       	add	r24, r24
     21c:	99 1f       	adc	r25, r25
     21e:	aa 1f       	adc	r26, r26
     220:	bb 1f       	adc	r27, r27
     222:	9c 01       	movw	r18, r24
     224:	ad 01       	movw	r20, r26
     226:	22 0f       	add	r18, r18
     228:	33 1f       	adc	r19, r19
     22a:	44 1f       	adc	r20, r20
     22c:	55 1f       	adc	r21, r21
     22e:	22 0f       	add	r18, r18
     230:	33 1f       	adc	r19, r19
     232:	44 1f       	adc	r20, r20
     234:	55 1f       	adc	r21, r21
     236:	60 e0       	ldi	r22, 0x00	; 0
     238:	74 e2       	ldi	r23, 0x24	; 36
     23a:	84 ef       	ldi	r24, 0xF4	; 244
     23c:	90 e0       	ldi	r25, 0x00	; 0
     23e:	0e 94 0a 10 	call	0x2014	; 0x2014 <__udivmodsi4>
     242:	ca 01       	movw	r24, r20
     244:	b9 01       	movw	r22, r18
     246:	61 50       	subi	r22, 0x01	; 1
     248:	70 40       	sbci	r23, 0x00	; 0
     24a:	80 40       	sbci	r24, 0x00	; 0
     24c:	90 40       	sbci	r25, 0x00	; 0
     24e:	0e 94 2c 0e 	call	0x1c58	; 0x1c58 <__floatunsisf>
     252:	0e 94 27 0f 	call	0x1e4e	; 0x1e4e <lrint>
     256:	86 2f       	mov	r24, r22
	if (AsyncDoubleSpeed ==1) UCSR0A = (1 << U2X0);
     258:	11 30       	cpi	r17, 0x01	; 1
     25a:	19 f4       	brne	.+6      	; 0x262 <InitializeUART0+0x68>
     25c:	92 e0       	ldi	r25, 0x02	; 2
     25e:	90 93 c0 00 	sts	0x00C0, r25
	UBRR0H = (unsigned char) (UBBRValue >> 8);
     262:	70 93 c5 00 	sts	0x00C5, r23
	UBRR0L = (unsigned char) UBBRValue;
     266:	80 93 c4 00 	sts	0x00C4, r24
	UCSR0B = (1 << TXEN0);
     26a:	88 e0       	ldi	r24, 0x08	; 8
     26c:	80 93 c1 00 	sts	0x00C1, r24
	if (USARTinterruptEnable) UCSR0B |=(1 <<RXCIE0);
     270:	ee 20       	and	r14, r14
     272:	29 f0       	breq	.+10     	; 0x27e <InitializeUART0+0x84>
     274:	e1 ec       	ldi	r30, 0xC1	; 193
     276:	f0 e0       	ldi	r31, 0x00	; 0
     278:	80 81       	ld	r24, Z
     27a:	80 68       	ori	r24, 0x80	; 128
     27c:	80 83       	st	Z, r24
	if (StopBits == 2) UCSR0C = (1 << USBS0);
     27e:	02 30       	cpi	r16, 0x02	; 2
     280:	19 f4       	brne	.+6      	; 0x288 <InitializeUART0+0x8e>
     282:	88 e0       	ldi	r24, 0x08	; 8
     284:	80 93 c2 00 	sts	0x00C2, r24
	if (ParityEVENorODD == EVEN) UCSR0C |= (1 << UPM01);
     288:	dd 23       	and	r29, r29
     28a:	31 f4       	brne	.+12     	; 0x298 <InitializeUART0+0x9e>
     28c:	e2 ec       	ldi	r30, 0xC2	; 194
     28e:	f0 e0       	ldi	r31, 0x00	; 0
     290:	80 81       	ld	r24, Z
     292:	80 62       	ori	r24, 0x20	; 32
     294:	80 83       	st	Z, r24
     296:	07 c0       	rjmp	.+14     	; 0x2a6 <InitializeUART0+0xac>
	if (ParityEVENorODD == ODD) UCSR0C |= (3 << UPM00);
     298:	d1 30       	cpi	r29, 0x01	; 1
     29a:	29 f4       	brne	.+10     	; 0x2a6 <InitializeUART0+0xac>
     29c:	e2 ec       	ldi	r30, 0xC2	; 194
     29e:	f0 e0       	ldi	r31, 0x00	; 0
     2a0:	80 81       	ld	r24, Z
     2a2:	80 63       	ori	r24, 0x30	; 48
     2a4:	80 83       	st	Z, r24
	if (DataSizeInBits ==6) UCSR0C |= (1 << UCSZ00);
     2a6:	c6 30       	cpi	r28, 0x06	; 6
     2a8:	31 f4       	brne	.+12     	; 0x2b6 <InitializeUART0+0xbc>
     2aa:	e2 ec       	ldi	r30, 0xC2	; 194
     2ac:	f0 e0       	ldi	r31, 0x00	; 0
     2ae:	80 81       	ld	r24, Z
     2b0:	82 60       	ori	r24, 0x02	; 2
     2b2:	80 83       	st	Z, r24
     2b4:	10 c0       	rjmp	.+32     	; 0x2d6 <InitializeUART0+0xdc>
	if (DataSizeInBits ==7) UCSR0C |= (2 << UCSZ00);
     2b6:	c7 30       	cpi	r28, 0x07	; 7
     2b8:	31 f4       	brne	.+12     	; 0x2c6 <InitializeUART0+0xcc>
     2ba:	e2 ec       	ldi	r30, 0xC2	; 194
     2bc:	f0 e0       	ldi	r31, 0x00	; 0
     2be:	80 81       	ld	r24, Z
     2c0:	84 60       	ori	r24, 0x04	; 4
     2c2:	80 83       	st	Z, r24
     2c4:	0f c0       	rjmp	.+30     	; 0x2e4 <InitializeUART0+0xea>
	if (DataSizeInBits ==8) UCSR0C |= (3 << UCSZ00);
     2c6:	c8 30       	cpi	r28, 0x08	; 8
     2c8:	31 f4       	brne	.+12     	; 0x2d6 <InitializeUART0+0xdc>
     2ca:	e2 ec       	ldi	r30, 0xC2	; 194
     2cc:	f0 e0       	ldi	r31, 0x00	; 0
     2ce:	80 81       	ld	r24, Z
     2d0:	86 60       	ori	r24, 0x06	; 6
     2d2:	80 83       	st	Z, r24
     2d4:	07 c0       	rjmp	.+14     	; 0x2e4 <InitializeUART0+0xea>
	if (DataSizeInBits ==9) UCSR0C |= (7 << UCSZ00);
     2d6:	c9 30       	cpi	r28, 0x09	; 9
     2d8:	29 f4       	brne	.+10     	; 0x2e4 <InitializeUART0+0xea>
     2da:	e2 ec       	ldi	r30, 0xC2	; 194
     2dc:	f0 e0       	ldi	r31, 0x00	; 0
     2de:	80 81       	ld	r24, Z
     2e0:	8e 60       	ori	r24, 0x0E	; 14
     2e2:	80 83       	st	Z, r24
}
     2e4:	df 91       	pop	r29
     2e6:	cf 91       	pop	r28
     2e8:	1f 91       	pop	r17
     2ea:	0f 91       	pop	r16
     2ec:	ef 90       	pop	r14
     2ee:	08 95       	ret

000002f0 <TX_buffer>:

void TX_buffer(void)
{
     2f0:	cf 93       	push	r28
     2f2:	df 93       	push	r29
	cont_buffer=0;
     2f4:	10 92 c6 02 	sts	0x02C6, r1
	while(buffer_tx[cont_buffer] !=0){
     2f8:	30 91 07 03 	lds	r19, 0x0307
     2fc:	33 23       	and	r19, r19
     2fe:	a9 f0       	breq	.+42     	; 0x32a <TX_buffer+0x3a>
		while((UCSR0A & 0x20) == 0);
     300:	e0 ec       	ldi	r30, 0xC0	; 192
     302:	f0 e0       	ldi	r31, 0x00	; 0
		UDR0 = buffer_tx[cont_buffer];
     304:	c6 ec       	ldi	r28, 0xC6	; 198
     306:	d0 e0       	ldi	r29, 0x00	; 0
}

void TX_buffer(void)
{
	cont_buffer=0;
	while(buffer_tx[cont_buffer] !=0){
     308:	87 e0       	ldi	r24, 0x07	; 7
     30a:	93 e0       	ldi	r25, 0x03	; 3
		while((UCSR0A & 0x20) == 0);
     30c:	20 81       	ld	r18, Z
     30e:	25 ff       	sbrs	r18, 5
     310:	fd cf       	rjmp	.-6      	; 0x30c <TX_buffer+0x1c>
		UDR0 = buffer_tx[cont_buffer];
     312:	38 83       	st	Y, r19
		cont_buffer++;
     314:	20 91 c6 02 	lds	r18, 0x02C6
     318:	2f 5f       	subi	r18, 0xFF	; 255
     31a:	20 93 c6 02 	sts	0x02C6, r18
}

void TX_buffer(void)
{
	cont_buffer=0;
	while(buffer_tx[cont_buffer] !=0){
     31e:	dc 01       	movw	r26, r24
     320:	a2 0f       	add	r26, r18
     322:	b1 1d       	adc	r27, r1
     324:	3c 91       	ld	r19, X
     326:	33 23       	and	r19, r19
     328:	89 f7       	brne	.-30     	; 0x30c <TX_buffer+0x1c>
		while((UCSR0A & 0x20) == 0);
		UDR0 = buffer_tx[cont_buffer];
		cont_buffer++;
	}
}
     32a:	df 91       	pop	r29
     32c:	cf 91       	pop	r28
     32e:	08 95       	ret

00000330 <apagar_variaveis>:

void apagar_variaveis(void)
{
	teste = 0;
     330:	10 92 84 03 	sts	0x0384, r1
     334:	10 92 83 03 	sts	0x0383, r1
	inicio = 1;
     338:	81 e0       	ldi	r24, 0x01	; 1
     33a:	90 e0       	ldi	r25, 0x00	; 0
     33c:	90 93 d2 02 	sts	0x02D2, r25
     340:	80 93 d1 02 	sts	0x02D1, r24
	sw11 = 0;
     344:	10 92 fc 02 	sts	0x02FC, r1
     348:	10 92 fb 02 	sts	0x02FB, r1
	sw22 = 0;
     34c:	10 92 de 02 	sts	0x02DE, r1
     350:	10 92 dd 02 	sts	0x02DD, r1
	sw33 = 0;
     354:	10 92 c5 02 	sts	0x02C5, r1
     358:	10 92 c4 02 	sts	0x02C4, r1
	V_cutoff = 0.0;
     35c:	80 e0       	ldi	r24, 0x00	; 0
     35e:	90 e0       	ldi	r25, 0x00	; 0
     360:	dc 01       	movw	r26, r24
     362:	80 93 b4 02 	sts	0x02B4, r24
     366:	90 93 b5 02 	sts	0x02B5, r25
     36a:	a0 93 b6 02 	sts	0x02B6, r26
     36e:	b0 93 b7 02 	sts	0x02B7, r27
	acum = 0;
     372:	10 92 af 02 	sts	0x02AF, r1
     376:	10 92 ae 02 	sts	0x02AE, r1
	capacidade=0.0;
     37a:	80 93 bc 02 	sts	0x02BC, r24
     37e:	90 93 bd 02 	sts	0x02BD, r25
     382:	a0 93 be 02 	sts	0x02BE, r26
     386:	b0 93 bf 02 	sts	0x02BF, r27
	Vload=0;
     38a:	80 93 b0 02 	sts	0x02B0, r24
     38e:	90 93 b1 02 	sts	0x02B1, r25
     392:	a0 93 b2 02 	sts	0x02B2, r26
     396:	b0 93 b3 02 	sts	0x02B3, r27
	Voc=0;
     39a:	80 93 ab 03 	sts	0x03AB, r24
     39e:	90 93 ac 03 	sts	0x03AC, r25
     3a2:	a0 93 ad 03 	sts	0x03AD, r26
     3a6:	b0 93 ae 03 	sts	0x03AE, r27
	current= 0.0;
     3aa:	80 93 b8 02 	sts	0x02B8, r24
     3ae:	90 93 b9 02 	sts	0x02B9, r25
     3b2:	a0 93 ba 02 	sts	0x02BA, r26
     3b6:	b0 93 bb 02 	sts	0x02BB, r27
	millisPassed= 0;
     3ba:	10 92 a7 02 	sts	0x02A7, r1
     3be:	10 92 a6 02 	sts	0x02A6, r1
	runMillis=0;
     3c2:	10 92 90 03 	sts	0x0390, r1
     3c6:	10 92 8f 03 	sts	0x038F, r1
	previousMillis=0;
     3ca:	10 92 a9 02 	sts	0x02A9, r1
     3ce:	10 92 a8 02 	sts	0x02A8, r1
	comecoms=0;
     3d2:	10 92 b3 03 	sts	0x03B3, r1
     3d6:	10 92 b4 03 	sts	0x03B4, r1
     3da:	10 92 b5 03 	sts	0x03B5, r1
     3de:	10 92 b6 03 	sts	0x03B6, r1
	voltage_a0=0;
     3e2:	80 93 df 02 	sts	0x02DF, r24
     3e6:	90 93 e0 02 	sts	0x02E0, r25
     3ea:	a0 93 e1 02 	sts	0x02E1, r26
     3ee:	b0 93 e2 02 	sts	0x02E2, r27
	cap=0;
     3f2:	10 92 a5 02 	sts	0x02A5, r1
     3f6:	10 92 a4 02 	sts	0x02A4, r1
	escolha=0;
     3fa:	10 92 4e 03 	sts	0x034E, r1
     3fe:	10 92 4d 03 	sts	0x034D, r1
}
     402:	08 95       	ret

00000404 <init>:

//*************************************INICIALIZACAO******************************
void init (){
     404:	ef 92       	push	r14
     406:	0f 93       	push	r16
	inicio=1;
     408:	81 e0       	ldi	r24, 0x01	; 1
     40a:	90 e0       	ldi	r25, 0x00	; 0
     40c:	90 93 d2 02 	sts	0x02D2, r25
     410:	80 93 d1 02 	sts	0x02D1, r24
	teste=0;
     414:	10 92 84 03 	sts	0x0384, r1
     418:	10 92 83 03 	sts	0x0383, r1
	Vload = 0.0;
     41c:	80 e0       	ldi	r24, 0x00	; 0
     41e:	90 e0       	ldi	r25, 0x00	; 0
     420:	dc 01       	movw	r26, r24
     422:	80 93 b0 02 	sts	0x02B0, r24
     426:	90 93 b1 02 	sts	0x02B1, r25
     42a:	a0 93 b2 02 	sts	0x02B2, r26
     42e:	b0 93 b3 02 	sts	0x02B3, r27
	DDRB &= ~(1<<0);// SW1 como entrada
     432:	20 98       	cbi	0x04, 0	; 4
	DDRB &= ~(1<<2);// SW2 como entrada
     434:	22 98       	cbi	0x04, 2	; 4
	DDRC |= (1<<4);// LED verde como saida; Para atmega 1Mhz: DDRB |= (1<<6);
     436:	3c 9a       	sbi	0x07, 4	; 7
	DDRC |= (1<<5);// LED vermelho como saida; Para atmega 1Mhz: DDRB |= (1<<7);
     438:	3d 9a       	sbi	0x07, 5	; 7
	DDRB |= (1<<3);
     43a:	23 9a       	sbi	0x04, 3	; 4
	PORTC |= (1<<4);// LED verde ligado
     43c:	44 9a       	sbi	0x08, 4	; 8
	PORTC &= ~(1 << 5); // LED vermelho desligado
     43e:	45 98       	cbi	0x08, 5	; 8
	PORTB &= ~(1 << 3); // Teste começa desligado
     440:	2b 98       	cbi	0x05, 3	; 5
	DDRC &= ~(1<<0);
     442:	38 98       	cbi	0x07, 0	; 7
	DDRC &= ~(1<<1);
     444:	39 98       	cbi	0x07, 1	; 7
	DDRC &= ~(1<<2);
     446:	3a 98       	cbi	0x07, 2	; 7
	DDRC &= ~(1<<3);
     448:	3b 98       	cbi	0x07, 3	; 7
	////////////////////////// TIMER0
	TIMSK0 |= 0b00000010;
     44a:	ee e6       	ldi	r30, 0x6E	; 110
     44c:	f0 e0       	ldi	r31, 0x00	; 0
     44e:	80 81       	ld	r24, Z
     450:	82 60       	ori	r24, 0x02	; 2
     452:	80 83       	st	Z, r24
	TCCR0A = 0b10000010;
     454:	82 e8       	ldi	r24, 0x82	; 130
     456:	84 bd       	out	0x24, r24	; 36
	TCCR0B = 0b00000010;
     458:	82 e0       	ldi	r24, 0x02	; 2
     45a:	85 bd       	out	0x25, r24	; 37
	OCR0A=243;
     45c:	83 ef       	ldi	r24, 0xF3	; 243
     45e:	87 bd       	out	0x27, r24	; 39
	//////////////////////
	millis_init(); //Inicia MILLIS
     460:	0e 94 8f 0c 	call	0x191e	; 0x191e <millis_init>
	InitializeUART0(9600, 0, 8, NONE, 2, TRUE); //Inicia comunicacao serie
     464:	80 e8       	ldi	r24, 0x80	; 128
     466:	95 e2       	ldi	r25, 0x25	; 37
     468:	60 e0       	ldi	r22, 0x00	; 0
     46a:	48 e0       	ldi	r20, 0x08	; 8
     46c:	22 e0       	ldi	r18, 0x02	; 2
     46e:	02 e0       	ldi	r16, 0x02	; 2
     470:	ee 24       	eor	r14, r14
     472:	e3 94       	inc	r14
     474:	0e 94 fd 00 	call	0x1fa	; 0x1fa <InitializeUART0>
	lcd_init(LCD_DISP_ON); // Inicia LCD
     478:	8c e0       	ldi	r24, 0x0C	; 12
     47a:	0e 94 53 0c 	call	0x18a6	; 0x18a6 <lcd_init>
	lcd_clrscr();
     47e:	0e 94 15 0c 	call	0x182a	; 0x182a <lcd_clrscr>
	lcd_home(); 
     482:	0e 94 19 0c 	call	0x1832	; 0x1832 <lcd_home>
	lcd_puts("TESTE DE PILHAS");      
     486:	80 e0       	ldi	r24, 0x00	; 0
     488:	91 e0       	ldi	r25, 0x01	; 1
     48a:	0e 94 32 0c 	call	0x1864	; 0x1864 <lcd_puts>
	lcd_gotoxy(6,1);         
     48e:	86 e0       	ldi	r24, 0x06	; 6
     490:	61 e0       	ldi	r22, 0x01	; 1
     492:	0e 94 07 0c 	call	0x180e	; 0x180e <lcd_gotoxy>
	lcd_puts("ISEP"); 
     496:	80 e1       	ldi	r24, 0x10	; 16
     498:	91 e0       	ldi	r25, 0x01	; 1
     49a:	0e 94 32 0c 	call	0x1864	; 0x1864 <lcd_puts>
	#else
		//round up by default
		__ticks_dc = (uint32_t)(ceil(fabs(__tmp)));
	#endif

	__builtin_avr_delay_cycles(__ticks_dc);
     49e:	8f ef       	ldi	r24, 0xFF	; 255
     4a0:	93 e2       	ldi	r25, 0x23	; 35
     4a2:	a4 ef       	ldi	r26, 0xF4	; 244
     4a4:	81 50       	subi	r24, 0x01	; 1
     4a6:	90 40       	sbci	r25, 0x00	; 0
     4a8:	a0 40       	sbci	r26, 0x00	; 0
     4aa:	e1 f7       	brne	.-8      	; 0x4a4 <init+0xa0>
     4ac:	00 c0       	rjmp	.+0      	; 0x4ae <init+0xaa>
     4ae:	00 00       	nop
	_delay_ms(80000);
	lcd_clrscr();
     4b0:	0e 94 15 0c 	call	0x182a	; 0x182a <lcd_clrscr>
	sei(); // SREG |= 0x80;
     4b4:	78 94       	sei
	cnt1s=8000; // Timer 1s para piscar LED; cnt1s=500 para atmega 1Mhz
     4b6:	80 e4       	ldi	r24, 0x40	; 64
     4b8:	9f e1       	ldi	r25, 0x1F	; 31
     4ba:	a0 e0       	ldi	r26, 0x00	; 0
     4bc:	b0 e0       	ldi	r27, 0x00	; 0
     4be:	80 93 63 03 	sts	0x0363, r24
     4c2:	90 93 64 03 	sts	0x0364, r25
     4c6:	a0 93 65 03 	sts	0x0365, r26
     4ca:	b0 93 66 03 	sts	0x0366, r27
	cnt1m=480000; // Timer 1m para UART;	cnt1m=60000 para atmega 1Mhz
     4ce:	80 e0       	ldi	r24, 0x00	; 0
     4d0:	93 e5       	ldi	r25, 0x53	; 83
     4d2:	a7 e0       	ldi	r26, 0x07	; 7
     4d4:	b0 e0       	ldi	r27, 0x00	; 0
     4d6:	80 93 67 03 	sts	0x0367, r24
     4da:	90 93 68 03 	sts	0x0368, r25
     4de:	a0 93 69 03 	sts	0x0369, r26
     4e2:	b0 93 6a 03 	sts	0x036A, r27
}
     4e6:	0f 91       	pop	r16
     4e8:	ef 90       	pop	r14
     4ea:	08 95       	ret

000004ec <InitADC>:

void InitADC()
{
	ADMUX=(1<<REFS0);  // For Aref=AVcc;
     4ec:	80 e4       	ldi	r24, 0x40	; 64
     4ee:	80 93 7c 00 	sts	0x007C, r24
	ADCSRA=(1<<ADEN)|(0<<ADPS2)|(1<<ADPS1)|(1<<ADPS0); //Prescaler div factor =8
     4f2:	83 e8       	ldi	r24, 0x83	; 131
     4f4:	80 93 7a 00 	sts	0x007A, r24
}
     4f8:	08 95       	ret

000004fa <ReadADC>:

uint16_t ReadADC(uint8_t ch)
{	
	ADMUX=(1<<REFS0); // Aref=AVcc;
     4fa:	ac e7       	ldi	r26, 0x7C	; 124
     4fc:	b0 e0       	ldi	r27, 0x00	; 0
     4fe:	90 e4       	ldi	r25, 0x40	; 64
     500:	9c 93       	st	X, r25
	ADCSRA=(1<<ADEN)|(0<<ADPS2)|(1<<ADPS1)|(1<<ADPS0); //Prescaler div factor =8
     502:	ea e7       	ldi	r30, 0x7A	; 122
     504:	f0 e0       	ldi	r31, 0x00	; 0
     506:	93 e8       	ldi	r25, 0x83	; 131
     508:	90 83       	st	Z, r25
	ch=ch&0b00000111;//Seleciona canal ADC
	ADMUX|=ch;
     50a:	9c 91       	ld	r25, X

uint16_t ReadADC(uint8_t ch)
{	
	ADMUX=(1<<REFS0); // Aref=AVcc;
	ADCSRA=(1<<ADEN)|(0<<ADPS2)|(1<<ADPS1)|(1<<ADPS0); //Prescaler div factor =8
	ch=ch&0b00000111;//Seleciona canal ADC
     50c:	87 70       	andi	r24, 0x07	; 7
	ADMUX|=ch;
     50e:	98 2b       	or	r25, r24
     510:	9c 93       	st	X, r25
	ADCSRA|=(1<<ADSC);
     512:	80 81       	ld	r24, Z
     514:	80 64       	ori	r24, 0x40	; 64
     516:	80 83       	st	Z, r24
	while(!(ADCSRA & (1<<ADIF)));
     518:	80 81       	ld	r24, Z
     51a:	84 ff       	sbrs	r24, 4
     51c:	fd cf       	rjmp	.-6      	; 0x518 <ReadADC+0x1e>
	ADCSRA|=(1<<ADIF);
     51e:	ea e7       	ldi	r30, 0x7A	; 122
     520:	f0 e0       	ldi	r31, 0x00	; 0
     522:	80 81       	ld	r24, Z
     524:	80 61       	ori	r24, 0x10	; 16
     526:	80 83       	st	Z, r24
	return(ADC);
     528:	80 91 78 00 	lds	r24, 0x0078
     52c:	90 91 79 00 	lds	r25, 0x0079
}
     530:	08 95       	ret

00000532 <__vector_14>:

ISR(TIMER0_COMPA_vect)
{
     532:	1f 92       	push	r1
     534:	0f 92       	push	r0
     536:	0f b6       	in	r0, 0x3f	; 63
     538:	0f 92       	push	r0
     53a:	11 24       	eor	r1, r1
     53c:	2f 93       	push	r18
     53e:	3f 93       	push	r19
     540:	4f 93       	push	r20
     542:	5f 93       	push	r21
     544:	6f 93       	push	r22
     546:	7f 93       	push	r23
     548:	8f 93       	push	r24
     54a:	9f 93       	push	r25
     54c:	af 93       	push	r26
     54e:	bf 93       	push	r27
     550:	ef 93       	push	r30
     552:	ff 93       	push	r31
	if (inicio == 1 && teste == 0)
     554:	80 91 d1 02 	lds	r24, 0x02D1
     558:	90 91 d2 02 	lds	r25, 0x02D2
     55c:	81 30       	cpi	r24, 0x01	; 1
     55e:	91 05       	cpc	r25, r1
     560:	f1 f5       	brne	.+124    	; 0x5de <__vector_14+0xac>
     562:	80 91 83 03 	lds	r24, 0x0383
     566:	90 91 84 03 	lds	r25, 0x0384
     56a:	00 97       	sbiw	r24, 0x00	; 0
     56c:	c1 f5       	brne	.+112    	; 0x5de <__vector_14+0xac>
		{
			adc_result_a0 = ReadADC(0);
     56e:	80 e0       	ldi	r24, 0x00	; 0
     570:	0e 94 7d 02 	call	0x4fa	; 0x4fa <ReadADC>
     574:	bc 01       	movw	r22, r24
     576:	80 e0       	ldi	r24, 0x00	; 0
     578:	90 e0       	ldi	r25, 0x00	; 0
     57a:	0e 94 2c 0e 	call	0x1c58	; 0x1c58 <__floatunsisf>
     57e:	60 93 7f 03 	sts	0x037F, r22
     582:	70 93 80 03 	sts	0x0380, r23
     586:	80 93 81 03 	sts	0x0381, r24
     58a:	90 93 82 03 	sts	0x0382, r25
			voltage_a0 = (adc_result_a0*5)/1024;
     58e:	20 e0       	ldi	r18, 0x00	; 0
     590:	30 e0       	ldi	r19, 0x00	; 0
     592:	40 ea       	ldi	r20, 0xA0	; 160
     594:	50 e4       	ldi	r21, 0x40	; 64
     596:	0e 94 61 0f 	call	0x1ec2	; 0x1ec2 <__mulsf3>
     59a:	20 e0       	ldi	r18, 0x00	; 0
     59c:	30 e0       	ldi	r19, 0x00	; 0
     59e:	40 e8       	ldi	r20, 0x80	; 128
     5a0:	5a e3       	ldi	r21, 0x3A	; 58
     5a2:	0e 94 61 0f 	call	0x1ec2	; 0x1ec2 <__mulsf3>
     5a6:	26 2f       	mov	r18, r22
     5a8:	37 2f       	mov	r19, r23
     5aa:	f8 2f       	mov	r31, r24
     5ac:	e9 2f       	mov	r30, r25
     5ae:	46 2f       	mov	r20, r22
     5b0:	57 2f       	mov	r21, r23
     5b2:	68 2f       	mov	r22, r24
     5b4:	79 2f       	mov	r23, r25
     5b6:	40 93 df 02 	sts	0x02DF, r20
     5ba:	50 93 e0 02 	sts	0x02E0, r21
     5be:	60 93 e1 02 	sts	0x02E1, r22
     5c2:	70 93 e2 02 	sts	0x02E2, r23
			Voc = voltage_a0; //// Obtem valor Voc para calculo da resistência interna
     5c6:	82 2f       	mov	r24, r18
     5c8:	93 2f       	mov	r25, r19
     5ca:	af 2f       	mov	r26, r31
     5cc:	be 2f       	mov	r27, r30
     5ce:	80 93 ab 03 	sts	0x03AB, r24
     5d2:	90 93 ac 03 	sts	0x03AC, r25
     5d6:	a0 93 ad 03 	sts	0x03AD, r26
     5da:	b0 93 ae 03 	sts	0x03AE, r27
			//temp_a2=((adc_result_a2)*0.48876);//temp_a2=((adc_result_a2)/1024)*5*1000/10... Como 10mV = 1ºC divide por 10;
			
			//adc_result_a3 = ReadADC(3);
		}
		
	if (teste==1 && inicio == 0)
     5de:	80 91 83 03 	lds	r24, 0x0383
     5e2:	90 91 84 03 	lds	r25, 0x0384
     5e6:	81 30       	cpi	r24, 0x01	; 1
     5e8:	91 05       	cpc	r25, r1
     5ea:	09 f0       	breq	.+2      	; 0x5ee <__vector_14+0xbc>
     5ec:	23 c1       	rjmp	.+582    	; 0x834 <__vector_14+0x302>
     5ee:	80 91 d1 02 	lds	r24, 0x02D1
     5f2:	90 91 d2 02 	lds	r25, 0x02D2
     5f6:	00 97       	sbiw	r24, 0x00	; 0
     5f8:	09 f0       	breq	.+2      	; 0x5fc <__vector_14+0xca>
     5fa:	1c c1       	rjmp	.+568    	; 0x834 <__vector_14+0x302>
	{
		cnt1s--;
     5fc:	80 91 63 03 	lds	r24, 0x0363
     600:	90 91 64 03 	lds	r25, 0x0364
     604:	a0 91 65 03 	lds	r26, 0x0365
     608:	b0 91 66 03 	lds	r27, 0x0366
     60c:	01 97       	sbiw	r24, 0x01	; 1
     60e:	a1 09       	sbc	r26, r1
     610:	b1 09       	sbc	r27, r1
     612:	80 93 63 03 	sts	0x0363, r24
     616:	90 93 64 03 	sts	0x0364, r25
     61a:	a0 93 65 03 	sts	0x0365, r26
     61e:	b0 93 66 03 	sts	0x0366, r27
		cnt1m--;
     622:	40 91 67 03 	lds	r20, 0x0367
     626:	50 91 68 03 	lds	r21, 0x0368
     62a:	60 91 69 03 	lds	r22, 0x0369
     62e:	70 91 6a 03 	lds	r23, 0x036A
     632:	41 50       	subi	r20, 0x01	; 1
     634:	50 40       	sbci	r21, 0x00	; 0
     636:	60 40       	sbci	r22, 0x00	; 0
     638:	70 40       	sbci	r23, 0x00	; 0
     63a:	40 93 67 03 	sts	0x0367, r20
     63e:	50 93 68 03 	sts	0x0368, r21
     642:	60 93 69 03 	sts	0x0369, r22
     646:	70 93 6a 03 	sts	0x036A, r23
		
			if(cnt1s==0) // Timer para piscar LED
     64a:	00 97       	sbiw	r24, 0x00	; 0
     64c:	a1 05       	cpc	r26, r1
     64e:	b1 05       	cpc	r27, r1
     650:	09 f0       	breq	.+2      	; 0x654 <__vector_14+0x122>
     652:	7f c0       	rjmp	.+254    	; 0x752 <__vector_14+0x220>
				{
				PORTC=PORTC^0b00010000;	//Altera estado do LED
     654:	98 b1       	in	r25, 0x08	; 8
     656:	80 e1       	ldi	r24, 0x10	; 16
     658:	89 27       	eor	r24, r25
     65a:	88 b9       	out	0x08, r24	; 8
	
				adc_result_a0 = ReadADC(0); // A0 - canal 0 do ADMUX
     65c:	80 e0       	ldi	r24, 0x00	; 0
     65e:	0e 94 7d 02 	call	0x4fa	; 0x4fa <ReadADC>
     662:	bc 01       	movw	r22, r24
     664:	80 e0       	ldi	r24, 0x00	; 0
     666:	90 e0       	ldi	r25, 0x00	; 0
     668:	0e 94 2c 0e 	call	0x1c58	; 0x1c58 <__floatunsisf>
     66c:	60 93 7f 03 	sts	0x037F, r22
     670:	70 93 80 03 	sts	0x0380, r23
     674:	80 93 81 03 	sts	0x0381, r24
     678:	90 93 82 03 	sts	0x0382, r25
				voltage_a0 = (adc_result_a0*5)/1024;
     67c:	20 e0       	ldi	r18, 0x00	; 0
     67e:	30 e0       	ldi	r19, 0x00	; 0
     680:	40 ea       	ldi	r20, 0xA0	; 160
     682:	50 e4       	ldi	r21, 0x40	; 64
     684:	0e 94 61 0f 	call	0x1ec2	; 0x1ec2 <__mulsf3>
     688:	20 e0       	ldi	r18, 0x00	; 0
     68a:	30 e0       	ldi	r19, 0x00	; 0
     68c:	40 e8       	ldi	r20, 0x80	; 128
     68e:	5a e3       	ldi	r21, 0x3A	; 58
     690:	0e 94 61 0f 	call	0x1ec2	; 0x1ec2 <__mulsf3>
     694:	dc 01       	movw	r26, r24
     696:	cb 01       	movw	r24, r22
     698:	80 93 df 02 	sts	0x02DF, r24
     69c:	90 93 e0 02 	sts	0x02E0, r25
     6a0:	a0 93 e1 02 	sts	0x02E1, r26
     6a4:	b0 93 e2 02 	sts	0x02E2, r27

				adc_result_a1 = ReadADC(1);			// A1 - canal 1 do ADMUX
     6a8:	81 e0       	ldi	r24, 0x01	; 1
     6aa:	0e 94 7d 02 	call	0x4fa	; 0x4fa <ReadADC>
     6ae:	bc 01       	movw	r22, r24
     6b0:	80 e0       	ldi	r24, 0x00	; 0
     6b2:	90 e0       	ldi	r25, 0x00	; 0
     6b4:	0e 94 2c 0e 	call	0x1c58	; 0x1c58 <__floatunsisf>
     6b8:	60 93 b7 03 	sts	0x03B7, r22
     6bc:	70 93 b8 03 	sts	0x03B8, r23
     6c0:	80 93 b9 03 	sts	0x03B9, r24
     6c4:	90 93 ba 03 	sts	0x03BA, r25
				voltage_a1 = (adc_result_a1*5)/1024;
     6c8:	20 e0       	ldi	r18, 0x00	; 0
     6ca:	30 e0       	ldi	r19, 0x00	; 0
     6cc:	40 ea       	ldi	r20, 0xA0	; 160
     6ce:	50 e4       	ldi	r21, 0x40	; 64
     6d0:	0e 94 61 0f 	call	0x1ec2	; 0x1ec2 <__mulsf3>
     6d4:	20 e0       	ldi	r18, 0x00	; 0
     6d6:	30 e0       	ldi	r19, 0x00	; 0
     6d8:	40 e8       	ldi	r20, 0x80	; 128
     6da:	5a e3       	ldi	r21, 0x3A	; 58
     6dc:	0e 94 61 0f 	call	0x1ec2	; 0x1ec2 <__mulsf3>
     6e0:	dc 01       	movw	r26, r24
     6e2:	cb 01       	movw	r24, r22
     6e4:	80 93 a7 03 	sts	0x03A7, r24
     6e8:	90 93 a8 03 	sts	0x03A8, r25
     6ec:	a0 93 a9 03 	sts	0x03A9, r26
     6f0:	b0 93 aa 03 	sts	0x03AA, r27
				//current = ( voltage_a1)*1000 ; //Formula Corrente em mA!!!

				adc_result_a2 = ReadADC(2); //Temperatura - canal 2 do ADMUX
     6f4:	82 e0       	ldi	r24, 0x02	; 2
     6f6:	0e 94 7d 02 	call	0x4fa	; 0x4fa <ReadADC>
     6fa:	90 93 b0 03 	sts	0x03B0, r25
     6fe:	80 93 af 03 	sts	0x03AF, r24
				temp_a2=((adc_result_a2)*0.38876);//temp_a2=((adc_result)/1024)*5*1000;
     702:	bc 01       	movw	r22, r24
     704:	80 e0       	ldi	r24, 0x00	; 0
     706:	90 e0       	ldi	r25, 0x00	; 0
     708:	0e 94 2c 0e 	call	0x1c58	; 0x1c58 <__floatunsisf>
     70c:	2d e8       	ldi	r18, 0x8D	; 141
     70e:	3b e0       	ldi	r19, 0x0B	; 11
     710:	47 ec       	ldi	r20, 0xC7	; 199
     712:	5e e3       	ldi	r21, 0x3E	; 62
     714:	0e 94 61 0f 	call	0x1ec2	; 0x1ec2 <__mulsf3>
     718:	dc 01       	movw	r26, r24
     71a:	cb 01       	movw	r24, r22
     71c:	80 93 4f 03 	sts	0x034F, r24
     720:	90 93 50 03 	sts	0x0350, r25
     724:	a0 93 51 03 	sts	0x0351, r26
     728:	b0 93 52 03 	sts	0x0352, r27
				
				adc_result_a3 = ReadADC(3);
     72c:	83 e0       	ldi	r24, 0x03	; 3
     72e:	0e 94 7d 02 	call	0x4fa	; 0x4fa <ReadADC>
     732:	90 93 54 03 	sts	0x0354, r25
     736:	80 93 53 03 	sts	0x0353, r24
				
				cnt1s=8000;			
     73a:	80 e4       	ldi	r24, 0x40	; 64
     73c:	9f e1       	ldi	r25, 0x1F	; 31
     73e:	a0 e0       	ldi	r26, 0x00	; 0
     740:	b0 e0       	ldi	r27, 0x00	; 0
     742:	80 93 63 03 	sts	0x0363, r24
     746:	90 93 64 03 	sts	0x0364, r25
     74a:	a0 93 65 03 	sts	0x0365, r26
     74e:	b0 93 66 03 	sts	0x0366, r27
				}
				
			if (cnt1m==0) // Timer para comunicação porta série
     752:	80 91 67 03 	lds	r24, 0x0367
     756:	90 91 68 03 	lds	r25, 0x0368
     75a:	a0 91 69 03 	lds	r26, 0x0369
     75e:	b0 91 6a 03 	lds	r27, 0x036A
     762:	00 97       	sbiw	r24, 0x00	; 0
     764:	a1 05       	cpc	r26, r1
     766:	b1 05       	cpc	r27, r1
     768:	09 f0       	breq	.+2      	; 0x76c <__vector_14+0x23a>
     76a:	64 c0       	rjmp	.+200    	; 0x834 <__vector_14+0x302>
				{	
					if (Vload==0) ///////////// Guarda o valor de Vload para calculo da resistência interna antes do início do teste.
     76c:	60 91 b0 02 	lds	r22, 0x02B0
     770:	70 91 b1 02 	lds	r23, 0x02B1
     774:	80 91 b2 02 	lds	r24, 0x02B2
     778:	90 91 b3 02 	lds	r25, 0x02B3
     77c:	20 e0       	ldi	r18, 0x00	; 0
     77e:	30 e0       	ldi	r19, 0x00	; 0
     780:	a9 01       	movw	r20, r18
     782:	0e 94 8f 0d 	call	0x1b1e	; 0x1b1e <__cmpsf2>
     786:	88 23       	and	r24, r24
     788:	81 f4       	brne	.+32     	; 0x7aa <__vector_14+0x278>
					{						
						Vload = voltage_a0;
     78a:	80 91 df 02 	lds	r24, 0x02DF
     78e:	90 91 e0 02 	lds	r25, 0x02E0
     792:	a0 91 e1 02 	lds	r26, 0x02E1
     796:	b0 91 e2 02 	lds	r27, 0x02E2
     79a:	80 93 b0 02 	sts	0x02B0, r24
     79e:	90 93 b1 02 	sts	0x02B1, r25
     7a2:	a0 93 b2 02 	sts	0x02B2, r26
     7a6:	b0 93 b3 02 	sts	0x02B3, r27
					}		
								
					//sprintf(buffer_tx,"%.2f V | %.0f mA | %.0f 'C | %.0f mAh | %d min\r\n",voltage_a0, current, temp_a2, capacidade, minutos );
					sprintf(buffer_tx,"%s V | %s mA | %s 'C | %s mAh | %d min\r\n",buffer_a0, buffer_current, buffer_temp, buffer_capacidade, minutos );
     7aa:	8d b7       	in	r24, 0x3d	; 61
     7ac:	9e b7       	in	r25, 0x3e	; 62
     7ae:	0e 97       	sbiw	r24, 0x0e	; 14
     7b0:	0f b6       	in	r0, 0x3f	; 63
     7b2:	f8 94       	cli
     7b4:	9e bf       	out	0x3e, r25	; 62
     7b6:	0f be       	out	0x3f, r0	; 63
     7b8:	8d bf       	out	0x3d, r24	; 61
     7ba:	ed b7       	in	r30, 0x3d	; 61
     7bc:	fe b7       	in	r31, 0x3e	; 62
     7be:	31 96       	adiw	r30, 0x01	; 1
     7c0:	87 e0       	ldi	r24, 0x07	; 7
     7c2:	93 e0       	ldi	r25, 0x03	; 3
     7c4:	ad b7       	in	r26, 0x3d	; 61
     7c6:	be b7       	in	r27, 0x3e	; 62
     7c8:	12 96       	adiw	r26, 0x02	; 2
     7ca:	9c 93       	st	X, r25
     7cc:	8e 93       	st	-X, r24
     7ce:	11 97       	sbiw	r26, 0x01	; 1
     7d0:	85 e1       	ldi	r24, 0x15	; 21
     7d2:	91 e0       	ldi	r25, 0x01	; 1
     7d4:	93 83       	std	Z+3, r25	; 0x03
     7d6:	82 83       	std	Z+2, r24	; 0x02
     7d8:	87 ec       	ldi	r24, 0xC7	; 199
     7da:	92 e0       	ldi	r25, 0x02	; 2
     7dc:	95 83       	std	Z+5, r25	; 0x05
     7de:	84 83       	std	Z+4, r24	; 0x04
     7e0:	83 ed       	ldi	r24, 0xD3	; 211
     7e2:	92 e0       	ldi	r25, 0x02	; 2
     7e4:	97 83       	std	Z+7, r25	; 0x07
     7e6:	86 83       	std	Z+6, r24	; 0x06
     7e8:	89 e5       	ldi	r24, 0x59	; 89
     7ea:	93 e0       	ldi	r25, 0x03	; 3
     7ec:	91 87       	std	Z+9, r25	; 0x09
     7ee:	80 87       	std	Z+8, r24	; 0x08
     7f0:	81 ef       	ldi	r24, 0xF1	; 241
     7f2:	92 e0       	ldi	r25, 0x02	; 2
     7f4:	93 87       	std	Z+11, r25	; 0x0b
     7f6:	82 87       	std	Z+10, r24	; 0x0a
     7f8:	80 91 b1 03 	lds	r24, 0x03B1
     7fc:	90 91 b2 03 	lds	r25, 0x03B2
     800:	95 87       	std	Z+13, r25	; 0x0d
     802:	84 87       	std	Z+12, r24	; 0x0c
     804:	0e 94 7d 10 	call	0x20fa	; 0x20fa <sprintf>
					TX_buffer();
     808:	8d b7       	in	r24, 0x3d	; 61
     80a:	9e b7       	in	r25, 0x3e	; 62
     80c:	0e 96       	adiw	r24, 0x0e	; 14
     80e:	0f b6       	in	r0, 0x3f	; 63
     810:	f8 94       	cli
     812:	9e bf       	out	0x3e, r25	; 62
     814:	0f be       	out	0x3f, r0	; 63
     816:	8d bf       	out	0x3d, r24	; 61
     818:	0e 94 78 01 	call	0x2f0	; 0x2f0 <TX_buffer>
					cnt1m=480000;
     81c:	80 e0       	ldi	r24, 0x00	; 0
     81e:	93 e5       	ldi	r25, 0x53	; 83
     820:	a7 e0       	ldi	r26, 0x07	; 7
     822:	b0 e0       	ldi	r27, 0x00	; 0
     824:	80 93 67 03 	sts	0x0367, r24
     828:	90 93 68 03 	sts	0x0368, r25
     82c:	a0 93 69 03 	sts	0x0369, r26
     830:	b0 93 6a 03 	sts	0x036A, r27
				}
		}

	}
     834:	ff 91       	pop	r31
     836:	ef 91       	pop	r30
     838:	bf 91       	pop	r27
     83a:	af 91       	pop	r26
     83c:	9f 91       	pop	r25
     83e:	8f 91       	pop	r24
     840:	7f 91       	pop	r23
     842:	6f 91       	pop	r22
     844:	5f 91       	pop	r21
     846:	4f 91       	pop	r20
     848:	3f 91       	pop	r19
     84a:	2f 91       	pop	r18
     84c:	0f 90       	pop	r0
     84e:	0f be       	out	0x3f, r0	; 63
     850:	0f 90       	pop	r0
     852:	1f 90       	pop	r1
     854:	18 95       	reti

00000856 <main>:

int main(void)
{
     856:	cf 93       	push	r28
     858:	df 93       	push	r29
     85a:	00 d0       	rcall	.+0      	; 0x85c <main+0x6>
     85c:	cd b7       	in	r28, 0x3d	; 61
     85e:	de b7       	in	r29, 0x3e	; 62
	init();
     860:	0e 94 02 02 	call	0x404	; 0x404 <init>
	InitADC();
     864:	0e 94 76 02 	call	0x4ec	; 0x4ec <InitADC>
			  	TX_buffer(); 						
		  	}

			///////////// A0 ////////////
			lcd_home();
			dtostrf(voltage_a0,3,2,buffer_a0);
     868:	0f 2e       	mov	r0, r31
     86a:	f7 ec       	ldi	r31, 0xC7	; 199
     86c:	2f 2e       	mov	r2, r31
     86e:	f2 e0       	ldi	r31, 0x02	; 2
     870:	3f 2e       	mov	r3, r31
     872:	f0 2d       	mov	r31, r0
     874:	b6 c2       	rjmp	.+1388   	; 0xde2 <__stack+0x4e3>
      while ((inicio == 1) && (teste == 0))
	  {
		while(voltage_a0 < 0.8)//////// TESTE DE PILHA INSERIDA ///////////////////
		{        
			lcd_home();  
			lcd_puts(" INSERIR PILHA");
     876:	0f 2e       	mov	r0, r31
     878:	fe e3       	ldi	r31, 0x3E	; 62
     87a:	af 2e       	mov	r10, r31
     87c:	f1 e0       	ldi	r31, 0x01	; 1
     87e:	bf 2e       	mov	r11, r31
     880:	f0 2d       	mov	r31, r0
					PORTC |= (1<<5);
					escolha=0;
								}
			PORTC &= ~(1<<5);
			lcd_gotoxy(0,1);
			lcd_puts("                ");
     882:	0e e5       	ldi	r16, 0x5E	; 94
     884:	11 e0       	ldi	r17, 0x01	; 1
    {
      while ((inicio == 1) && (teste == 0))
	  {
		while(voltage_a0 < 0.8)//////// TESTE DE PILHA INSERIDA ///////////////////
		{        
			lcd_home();  
     886:	0e 94 19 0c 	call	0x1832	; 0x1832 <lcd_home>
			lcd_puts(" INSERIR PILHA");
     88a:	c5 01       	movw	r24, r10
     88c:	0e 94 32 0c 	call	0x1864	; 0x1864 <lcd_puts>
			//temp_term = temp_term - 273.15;           // Convert Kelvin to Celcius
			//lcd_gotoxy(0, 1);
			//dtostrf(temp_term,4,0,buffer_term);
			//lcd_puts(buffer_term);
			////////////////////////////////////////////////////////////////////////////////
					while (voltage_a0 > 0.6 && voltage_a0 < 0.8) {
     890:	c0 90 df 02 	lds	r12, 0x02DF
     894:	d0 90 e0 02 	lds	r13, 0x02E0
     898:	e0 90 e1 02 	lds	r14, 0x02E1
     89c:	f0 90 e2 02 	lds	r15, 0x02E2
     8a0:	c7 01       	movw	r24, r14
     8a2:	b6 01       	movw	r22, r12
     8a4:	2a e9       	ldi	r18, 0x9A	; 154
     8a6:	39 e9       	ldi	r19, 0x99	; 153
     8a8:	49 e1       	ldi	r20, 0x19	; 25
     8aa:	5f e3       	ldi	r21, 0x3F	; 63
     8ac:	0e 94 de 0e 	call	0x1dbc	; 0x1dbc <__gesf2>
     8b0:	18 16       	cp	r1, r24
     8b2:	9c f5       	brge	.+102    	; 0x91a <__stack+0x1b>
     8b4:	c7 01       	movw	r24, r14
     8b6:	b6 01       	movw	r22, r12
     8b8:	2d ec       	ldi	r18, 0xCD	; 205
     8ba:	3c ec       	ldi	r19, 0xCC	; 204
     8bc:	4c e4       	ldi	r20, 0x4C	; 76
     8be:	5f e3       	ldi	r21, 0x3F	; 63
     8c0:	0e 94 8f 0d 	call	0x1b1e	; 0x1b1e <__cmpsf2>
     8c4:	88 23       	and	r24, r24
     8c6:	4c f5       	brge	.+82     	; 0x91a <__stack+0x1b>
					//lcd_gotoxy(0, 1);
					//dtostrf(voltage_a0,3,2,buffer_a0);
					//lcd_puts(buffer_a0);
					
					lcd_gotoxy(0,1);
     8c8:	80 e0       	ldi	r24, 0x00	; 0
     8ca:	61 e0       	ldi	r22, 0x01	; 1
     8cc:	0e 94 07 0c 	call	0x180e	; 0x180e <lcd_gotoxy>
					lcd_puts("--DESCARREGADA--");
     8d0:	8d e4       	ldi	r24, 0x4D	; 77
     8d2:	91 e0       	ldi	r25, 0x01	; 1
     8d4:	0e 94 32 0c 	call	0x1864	; 0x1864 <lcd_puts>
					PORTC |= (1<<5);
     8d8:	45 9a       	sbi	0x08, 5	; 8
					escolha=0;
     8da:	10 92 4e 03 	sts	0x034E, r1
     8de:	10 92 4d 03 	sts	0x034D, r1
			//temp_term = temp_term - 273.15;           // Convert Kelvin to Celcius
			//lcd_gotoxy(0, 1);
			//dtostrf(temp_term,4,0,buffer_term);
			//lcd_puts(buffer_term);
			////////////////////////////////////////////////////////////////////////////////
					while (voltage_a0 > 0.6 && voltage_a0 < 0.8) {
     8e2:	c0 90 df 02 	lds	r12, 0x02DF
     8e6:	d0 90 e0 02 	lds	r13, 0x02E0
     8ea:	e0 90 e1 02 	lds	r14, 0x02E1
     8ee:	f0 90 e2 02 	lds	r15, 0x02E2
     8f2:	c7 01       	movw	r24, r14
     8f4:	b6 01       	movw	r22, r12
     8f6:	2a e9       	ldi	r18, 0x9A	; 154
     8f8:	39 e9       	ldi	r19, 0x99	; 153
     8fa:	49 e1       	ldi	r20, 0x19	; 25
     8fc:	5f e3       	ldi	r21, 0x3F	; 63
     8fe:	0e 94 de 0e 	call	0x1dbc	; 0x1dbc <__gesf2>
     902:	18 16       	cp	r1, r24
     904:	54 f4       	brge	.+20     	; 0x91a <__stack+0x1b>
     906:	c7 01       	movw	r24, r14
     908:	b6 01       	movw	r22, r12
     90a:	2d ec       	ldi	r18, 0xCD	; 205
     90c:	3c ec       	ldi	r19, 0xCC	; 204
     90e:	4c e4       	ldi	r20, 0x4C	; 76
     910:	5f e3       	ldi	r21, 0x3F	; 63
     912:	0e 94 8f 0d 	call	0x1b1e	; 0x1b1e <__cmpsf2>
     916:	88 23       	and	r24, r24
     918:	bc f2       	brlt	.-82     	; 0x8c8 <main+0x72>
					lcd_gotoxy(0,1);
					lcd_puts("--DESCARREGADA--");
					PORTC |= (1<<5);
					escolha=0;
								}
			PORTC &= ~(1<<5);
     91a:	45 98       	cbi	0x08, 5	; 8
			lcd_gotoxy(0,1);
     91c:	80 e0       	ldi	r24, 0x00	; 0
     91e:	61 e0       	ldi	r22, 0x01	; 1
     920:	0e 94 07 0c 	call	0x180e	; 0x180e <lcd_gotoxy>
			lcd_puts("                ");
     924:	c8 01       	movw	r24, r16
     926:	0e 94 32 0c 	call	0x1864	; 0x1864 <lcd_puts>
			sw11 = 0;
     92a:	10 92 fc 02 	sts	0x02FC, r1
     92e:	10 92 fb 02 	sts	0x02FB, r1
	InitADC();
	while (1) 
    {
      while ((inicio == 1) && (teste == 0))
	  {
		while(voltage_a0 < 0.8)//////// TESTE DE PILHA INSERIDA ///////////////////
     932:	c0 90 df 02 	lds	r12, 0x02DF
     936:	d0 90 e0 02 	lds	r13, 0x02E0
     93a:	e0 90 e1 02 	lds	r14, 0x02E1
     93e:	f0 90 e2 02 	lds	r15, 0x02E2
     942:	c7 01       	movw	r24, r14
     944:	b6 01       	movw	r22, r12
     946:	2d ec       	ldi	r18, 0xCD	; 205
     948:	3c ec       	ldi	r19, 0xCC	; 204
     94a:	4c e4       	ldi	r20, 0x4C	; 76
     94c:	5f e3       	ldi	r21, 0x3F	; 63
     94e:	0e 94 8f 0d 	call	0x1b1e	; 0x1b1e <__cmpsf2>
     952:	88 23       	and	r24, r24
     954:	0c f4       	brge	.+2      	; 0x958 <__stack+0x59>
     956:	97 cf       	rjmp	.-210    	; 0x886 <main+0x30>
			PORTC &= ~(1<<5);
			lcd_gotoxy(0,1);
			lcd_puts("                ");
			sw11 = 0;
		}
		escolha=1;
     958:	81 e0       	ldi	r24, 0x01	; 1
     95a:	90 e0       	ldi	r25, 0x00	; 0
     95c:	90 93 4e 03 	sts	0x034E, r25
     960:	80 93 4d 03 	sts	0x034D, r24
		if ((sw11 == 0) && (sw22 == 0) && (sw33 == 0) && (voltage_a0 > 0.8) && (escolha=1))
     964:	80 91 fb 02 	lds	r24, 0x02FB
     968:	90 91 fc 02 	lds	r25, 0x02FC
     96c:	00 97       	sbiw	r24, 0x00	; 0
     96e:	31 f5       	brne	.+76     	; 0x9bc <__stack+0xbd>
     970:	80 91 dd 02 	lds	r24, 0x02DD
     974:	90 91 de 02 	lds	r25, 0x02DE
     978:	00 97       	sbiw	r24, 0x00	; 0
     97a:	01 f5       	brne	.+64     	; 0x9bc <__stack+0xbd>
     97c:	80 91 c4 02 	lds	r24, 0x02C4
     980:	90 91 c5 02 	lds	r25, 0x02C5
     984:	00 97       	sbiw	r24, 0x00	; 0
     986:	d1 f4       	brne	.+52     	; 0x9bc <__stack+0xbd>
     988:	c7 01       	movw	r24, r14
     98a:	b6 01       	movw	r22, r12
     98c:	2d ec       	ldi	r18, 0xCD	; 205
     98e:	3c ec       	ldi	r19, 0xCC	; 204
     990:	4c e4       	ldi	r20, 0x4C	; 76
     992:	5f e3       	ldi	r21, 0x3F	; 63
     994:	0e 94 de 0e 	call	0x1dbc	; 0x1dbc <__gesf2>
     998:	18 16       	cp	r1, r24
     99a:	84 f4       	brge	.+32     	; 0x9bc <__stack+0xbd>
			{
				lcd_clrscr();
     99c:	0e 94 15 0c 	call	0x182a	; 0x182a <lcd_clrscr>
				sw11=1;										
     9a0:	81 e0       	ldi	r24, 0x01	; 1
     9a2:	90 e0       	ldi	r25, 0x00	; 0
     9a4:	90 93 fc 02 	sts	0x02FC, r25
     9a8:	80 93 fb 02 	sts	0x02FB, r24
				lcd_gotoxy(1,0);
     9ac:	81 e0       	ldi	r24, 0x01	; 1
     9ae:	60 e0       	ldi	r22, 0x00	; 0
     9b0:	0e 94 07 0c 	call	0x180e	; 0x180e <lcd_gotoxy>
				lcd_puts("ESCOLHER TIPO");
     9b4:	8f e6       	ldi	r24, 0x6F	; 111
     9b6:	91 e0       	ldi	r25, 0x01	; 1
     9b8:	0e 94 32 0c 	call	0x1864	; 0x1864 <lcd_puts>
				//dtostrf(voltage_a0,3,2,buffer_a0);
				//lcd_puts(buffer_a0);
								
				}
		 ////////////////// PRIMEIRO SWITCH TIPO///////////////
		if ((PINB&(1<<0)) && sw11 == 1)
     9bc:	18 9b       	sbis	0x03, 0	; 3
     9be:	c1 c0       	rjmp	.+386    	; 0xb42 <__stack+0x243>
     9c0:	80 91 fb 02 	lds	r24, 0x02FB
     9c4:	90 91 fc 02 	lds	r25, 0x02FC
     9c8:	81 30       	cpi	r24, 0x01	; 1
     9ca:	91 05       	cpc	r25, r1
     9cc:	09 f0       	breq	.+2      	; 0x9d0 <__stack+0xd1>
     9ce:	b9 c0       	rjmp	.+370    	; 0xb42 <__stack+0x243>
     9d0:	8f ef       	ldi	r24, 0xFF	; 255
     9d2:	90 e7       	ldi	r25, 0x70	; 112
     9d4:	a2 e0       	ldi	r26, 0x02	; 2
     9d6:	81 50       	subi	r24, 0x01	; 1
     9d8:	90 40       	sbci	r25, 0x00	; 0
     9da:	a0 40       	sbci	r26, 0x00	; 0
     9dc:	e1 f7       	brne	.-8      	; 0x9d6 <__stack+0xd7>
     9de:	00 c0       	rjmp	.+0      	; 0x9e0 <__stack+0xe1>
     9e0:	00 00       	nop
			{
			_delay_ms(800);
			if(!(PINB&(1<<0))){
     9e2:	18 99       	sbic	0x03, 0	; 3
     9e4:	09 c0       	rjmp	.+18     	; 0x9f8 <__stack+0xf9>
     9e6:	8f ef       	ldi	r24, 0xFF	; 255
     9e8:	90 e7       	ldi	r25, 0x70	; 112
     9ea:	a2 e0       	ldi	r26, 0x02	; 2
     9ec:	81 50       	subi	r24, 0x01	; 1
     9ee:	90 40       	sbci	r25, 0x00	; 0
     9f0:	a0 40       	sbci	r26, 0x00	; 0
     9f2:	e1 f7       	brne	.-8      	; 0x9ec <__stack+0xed>
     9f4:	00 c0       	rjmp	.+0      	; 0x9f6 <__stack+0xf7>
     9f6:	00 00       	nop
			_delay_ms(800);}
			acum = acum % 3;
     9f8:	80 91 ae 02 	lds	r24, 0x02AE
     9fc:	90 91 af 02 	lds	r25, 0x02AF
     a00:	63 e0       	ldi	r22, 0x03	; 3
     a02:	70 e0       	ldi	r23, 0x00	; 0
     a04:	0e 94 f7 0f 	call	0x1fee	; 0x1fee <__divmodhi4>
     a08:	28 2f       	mov	r18, r24
     a0a:	39 2f       	mov	r19, r25
     a0c:	80 93 ae 02 	sts	0x02AE, r24
     a10:	90 93 af 02 	sts	0x02AF, r25
			switch (acum) {
     a14:	21 30       	cpi	r18, 0x01	; 1
     a16:	31 05       	cpc	r19, r1
     a18:	b9 f1       	breq	.+110    	; 0xa88 <__stack+0x189>
     a1a:	22 30       	cpi	r18, 0x02	; 2
     a1c:	31 05       	cpc	r19, r1
     a1e:	09 f4       	brne	.+2      	; 0xa22 <__stack+0x123>
     a20:	62 c0       	rjmp	.+196    	; 0xae6 <__stack+0x1e7>
     a22:	21 15       	cp	r18, r1
     a24:	31 05       	cpc	r19, r1
     a26:	09 f0       	breq	.+2      	; 0xa2a <__stack+0x12b>
     a28:	8c c0       	rjmp	.+280    	; 0xb42 <__stack+0x243>
			case 0:  // ALCALINA
			lcd_gotoxy(0, 1);
     a2a:	80 e0       	ldi	r24, 0x00	; 0
     a2c:	61 e0       	ldi	r22, 0x01	; 1
     a2e:	0e 94 07 0c 	call	0x180e	; 0x180e <lcd_gotoxy>
			lcd_puts("            ");
     a32:	8d e7       	ldi	r24, 0x7D	; 125
     a34:	91 e0       	ldi	r25, 0x01	; 1
     a36:	0e 94 32 0c 	call	0x1864	; 0x1864 <lcd_puts>
			lcd_gotoxy(4, 1);
     a3a:	84 e0       	ldi	r24, 0x04	; 4
     a3c:	61 e0       	ldi	r22, 0x01	; 1
     a3e:	0e 94 07 0c 	call	0x180e	; 0x180e <lcd_gotoxy>
			lcd_puts("Alcalina");
     a42:	8a e8       	ldi	r24, 0x8A	; 138
     a44:	91 e0       	ldi	r25, 0x01	; 1
     a46:	0e 94 32 0c 	call	0x1864	; 0x1864 <lcd_puts>
			acum++;
     a4a:	80 91 ae 02 	lds	r24, 0x02AE
     a4e:	90 91 af 02 	lds	r25, 0x02AF
     a52:	01 96       	adiw	r24, 0x01	; 1
     a54:	90 93 af 02 	sts	0x02AF, r25
     a58:	80 93 ae 02 	sts	0x02AE, r24
			//if (voltage_a0 > 2.5) {
				//V_cutoff = 4.8; // ALCALINA 9V
			 //} else {
				V_cutoff = 0.8;
     a5c:	8d ec       	ldi	r24, 0xCD	; 205
     a5e:	9c ec       	ldi	r25, 0xCC	; 204
     a60:	ac e4       	ldi	r26, 0x4C	; 76
     a62:	bf e3       	ldi	r27, 0x3F	; 63
     a64:	80 93 b4 02 	sts	0x02B4, r24
     a68:	90 93 b5 02 	sts	0x02B5, r25
     a6c:	a0 93 b6 02 	sts	0x02B6, r26
     a70:	b0 93 b7 02 	sts	0x02B7, r27
     a74:	8f ef       	ldi	r24, 0xFF	; 255
     a76:	91 ee       	ldi	r25, 0xE1	; 225
     a78:	a4 e0       	ldi	r26, 0x04	; 4
     a7a:	81 50       	subi	r24, 0x01	; 1
     a7c:	90 40       	sbci	r25, 0x00	; 0
     a7e:	a0 40       	sbci	r26, 0x00	; 0
     a80:	e1 f7       	brne	.-8      	; 0xa7a <__stack+0x17b>
     a82:	00 c0       	rjmp	.+0      	; 0xa84 <__stack+0x185>
     a84:	00 00       	nop
     a86:	5d c0       	rjmp	.+186    	; 0xb42 <__stack+0x243>
					// }
			_delay_ms(1600);
			break;

			case 1: // NI-MH / NI-CD
			lcd_gotoxy(0, 1);
     a88:	80 e0       	ldi	r24, 0x00	; 0
     a8a:	61 e0       	ldi	r22, 0x01	; 1
     a8c:	0e 94 07 0c 	call	0x180e	; 0x180e <lcd_gotoxy>
			lcd_puts("        ");
     a90:	83 e9       	ldi	r24, 0x93	; 147
     a92:	91 e0       	ldi	r25, 0x01	; 1
     a94:	0e 94 32 0c 	call	0x1864	; 0x1864 <lcd_puts>
			lcd_gotoxy(1, 1);
     a98:	81 e0       	ldi	r24, 0x01	; 1
     a9a:	61 e0       	ldi	r22, 0x01	; 1
     a9c:	0e 94 07 0c 	call	0x180e	; 0x180e <lcd_gotoxy>
			lcd_puts("Ni-Mh / Ni-Cd");
     aa0:	8c e9       	ldi	r24, 0x9C	; 156
     aa2:	91 e0       	ldi	r25, 0x01	; 1
     aa4:	0e 94 32 0c 	call	0x1864	; 0x1864 <lcd_puts>
			acum++;
     aa8:	80 91 ae 02 	lds	r24, 0x02AE
     aac:	90 91 af 02 	lds	r25, 0x02AF
     ab0:	01 96       	adiw	r24, 0x01	; 1
     ab2:	90 93 af 02 	sts	0x02AF, r25
     ab6:	80 93 ae 02 	sts	0x02AE, r24
			//if (voltage_a0 > 2.5) {
			 // V_cutoff = 7; // NIQUEL 9V
		//	} else {
			  V_cutoff = 1;
     aba:	80 e0       	ldi	r24, 0x00	; 0
     abc:	90 e0       	ldi	r25, 0x00	; 0
     abe:	a0 e8       	ldi	r26, 0x80	; 128
     ac0:	bf e3       	ldi	r27, 0x3F	; 63
     ac2:	80 93 b4 02 	sts	0x02B4, r24
     ac6:	90 93 b5 02 	sts	0x02B5, r25
     aca:	a0 93 b6 02 	sts	0x02B6, r26
     ace:	b0 93 b7 02 	sts	0x02B7, r27
     ad2:	8f ef       	ldi	r24, 0xFF	; 255
     ad4:	91 ee       	ldi	r25, 0xE1	; 225
     ad6:	a4 e0       	ldi	r26, 0x04	; 4
     ad8:	81 50       	subi	r24, 0x01	; 1
     ada:	90 40       	sbci	r25, 0x00	; 0
     adc:	a0 40       	sbci	r26, 0x00	; 0
     ade:	e1 f7       	brne	.-8      	; 0xad8 <__stack+0x1d9>
     ae0:	00 c0       	rjmp	.+0      	; 0xae2 <__stack+0x1e3>
     ae2:	00 00       	nop
     ae4:	2e c0       	rjmp	.+92     	; 0xb42 <__stack+0x243>
		//	}
			_delay_ms(1600);
			break;

			case 2:  // ZINCO
			lcd_gotoxy(0, 1);
     ae6:	80 e0       	ldi	r24, 0x00	; 0
     ae8:	61 e0       	ldi	r22, 0x01	; 1
     aea:	0e 94 07 0c 	call	0x180e	; 0x180e <lcd_gotoxy>
			lcd_puts("                ");
     aee:	8e e5       	ldi	r24, 0x5E	; 94
     af0:	91 e0       	ldi	r25, 0x01	; 1
     af2:	0e 94 32 0c 	call	0x1864	; 0x1864 <lcd_puts>
			lcd_gotoxy(5, 1);
     af6:	85 e0       	ldi	r24, 0x05	; 5
     af8:	61 e0       	ldi	r22, 0x01	; 1
     afa:	0e 94 07 0c 	call	0x180e	; 0x180e <lcd_gotoxy>
			lcd_puts("Zinco");
     afe:	8a ea       	ldi	r24, 0xAA	; 170
     b00:	91 e0       	ldi	r25, 0x01	; 1
     b02:	0e 94 32 0c 	call	0x1864	; 0x1864 <lcd_puts>
			acum++;
     b06:	80 91 ae 02 	lds	r24, 0x02AE
     b0a:	90 91 af 02 	lds	r25, 0x02AF
     b0e:	01 96       	adiw	r24, 0x01	; 1
     b10:	90 93 af 02 	sts	0x02AF, r25
     b14:	80 93 ae 02 	sts	0x02AE, r24
			//if (voltage_a0 > 2.5) {
			 // V_cutoff = 7; // ZINCO 9V
			//} else {
			  V_cutoff = 0.9;
     b18:	86 e6       	ldi	r24, 0x66	; 102
     b1a:	96 e6       	ldi	r25, 0x66	; 102
     b1c:	a6 e6       	ldi	r26, 0x66	; 102
     b1e:	bf e3       	ldi	r27, 0x3F	; 63
     b20:	80 93 b4 02 	sts	0x02B4, r24
     b24:	90 93 b5 02 	sts	0x02B5, r25
     b28:	a0 93 b6 02 	sts	0x02B6, r26
     b2c:	b0 93 b7 02 	sts	0x02B7, r27
     b30:	8f ef       	ldi	r24, 0xFF	; 255
     b32:	91 ee       	ldi	r25, 0xE1	; 225
     b34:	a4 e0       	ldi	r26, 0x04	; 4
     b36:	81 50       	subi	r24, 0x01	; 1
     b38:	90 40       	sbci	r25, 0x00	; 0
     b3a:	a0 40       	sbci	r26, 0x00	; 0
     b3c:	e1 f7       	brne	.-8      	; 0xb36 <__stack+0x237>
     b3e:	00 c0       	rjmp	.+0      	; 0xb40 <__stack+0x241>
     b40:	00 00       	nop
			_delay_ms(1600);
			break;
		}
		}

		if ((PINB & (1<<2)) && (V_cutoff != 0) && sw11 == 1 ) { //////////////// SEGUNDO SWITCH TIPO //////////
     b42:	1a 9b       	sbis	0x03, 2	; 3
     b44:	3a c0       	rjmp	.+116    	; 0xbba <__stack+0x2bb>
     b46:	60 91 b4 02 	lds	r22, 0x02B4
     b4a:	70 91 b5 02 	lds	r23, 0x02B5
     b4e:	80 91 b6 02 	lds	r24, 0x02B6
     b52:	90 91 b7 02 	lds	r25, 0x02B7
     b56:	20 e0       	ldi	r18, 0x00	; 0
     b58:	30 e0       	ldi	r19, 0x00	; 0
     b5a:	a9 01       	movw	r20, r18
     b5c:	0e 94 8f 0d 	call	0x1b1e	; 0x1b1e <__cmpsf2>
     b60:	88 23       	and	r24, r24
     b62:	59 f1       	breq	.+86     	; 0xbba <__stack+0x2bb>
     b64:	80 91 fb 02 	lds	r24, 0x02FB
     b68:	90 91 fc 02 	lds	r25, 0x02FC
     b6c:	81 30       	cpi	r24, 0x01	; 1
     b6e:	91 05       	cpc	r25, r1
     b70:	21 f5       	brne	.+72     	; 0xbba <__stack+0x2bb>
     b72:	8f ef       	ldi	r24, 0xFF	; 255
     b74:	90 e7       	ldi	r25, 0x70	; 112
     b76:	a2 e0       	ldi	r26, 0x02	; 2
     b78:	81 50       	subi	r24, 0x01	; 1
     b7a:	90 40       	sbci	r25, 0x00	; 0
     b7c:	a0 40       	sbci	r26, 0x00	; 0
     b7e:	e1 f7       	brne	.-8      	; 0xb78 <__stack+0x279>
     b80:	00 c0       	rjmp	.+0      	; 0xb82 <__stack+0x283>
     b82:	00 00       	nop
			_delay_ms(800);
	 		if(!(PINB&(1<<2))){ 
     b84:	1a 99       	sbic	0x03, 2	; 3
     b86:	09 c0       	rjmp	.+18     	; 0xb9a <__stack+0x29b>
     b88:	8f ef       	ldi	r24, 0xFF	; 255
     b8a:	90 e7       	ldi	r25, 0x70	; 112
     b8c:	a2 e0       	ldi	r26, 0x02	; 2
     b8e:	81 50       	subi	r24, 0x01	; 1
     b90:	90 40       	sbci	r25, 0x00	; 0
     b92:	a0 40       	sbci	r26, 0x00	; 0
     b94:	e1 f7       	brne	.-8      	; 0xb8e <__stack+0x28f>
     b96:	00 c0       	rjmp	.+0      	; 0xb98 <__stack+0x299>
     b98:	00 00       	nop
 			_delay_ms(800);
			 }  
			lcd_clrscr();
     b9a:	0e 94 15 0c 	call	0x182a	; 0x182a <lcd_clrscr>
			sw11 = 0;
     b9e:	10 92 fc 02 	sts	0x02FC, r1
     ba2:	10 92 fb 02 	sts	0x02FB, r1
			sw22 = 1;
     ba6:	81 e0       	ldi	r24, 0x01	; 1
     ba8:	90 e0       	ldi	r25, 0x00	; 0
     baa:	90 93 de 02 	sts	0x02DE, r25
     bae:	80 93 dd 02 	sts	0x02DD, r24
			sw33 = 0;
     bb2:	10 92 c5 02 	sts	0x02C5, r1
     bb6:	10 92 c4 02 	sts	0x02C4, r1
		}
	
		if ((sw11 == 0) && (sw22 == 1) && (sw33 == 0) && (V_cutoff != 0))
     bba:	80 91 fb 02 	lds	r24, 0x02FB
     bbe:	90 91 fc 02 	lds	r25, 0x02FC
     bc2:	00 97       	sbiw	r24, 0x00	; 0
     bc4:	21 f5       	brne	.+72     	; 0xc0e <__stack+0x30f>
     bc6:	80 91 dd 02 	lds	r24, 0x02DD
     bca:	90 91 de 02 	lds	r25, 0x02DE
     bce:	81 30       	cpi	r24, 0x01	; 1
     bd0:	91 05       	cpc	r25, r1
     bd2:	e9 f4       	brne	.+58     	; 0xc0e <__stack+0x30f>
     bd4:	80 91 c4 02 	lds	r24, 0x02C4
     bd8:	90 91 c5 02 	lds	r25, 0x02C5
     bdc:	00 97       	sbiw	r24, 0x00	; 0
     bde:	b9 f4       	brne	.+46     	; 0xc0e <__stack+0x30f>
     be0:	60 91 b4 02 	lds	r22, 0x02B4
     be4:	70 91 b5 02 	lds	r23, 0x02B5
     be8:	80 91 b6 02 	lds	r24, 0x02B6
     bec:	90 91 b7 02 	lds	r25, 0x02B7
     bf0:	20 e0       	ldi	r18, 0x00	; 0
     bf2:	30 e0       	ldi	r19, 0x00	; 0
     bf4:	a9 01       	movw	r20, r18
     bf6:	0e 94 8f 0d 	call	0x1b1e	; 0x1b1e <__cmpsf2>
     bfa:	88 23       	and	r24, r24
     bfc:	41 f0       	breq	.+16     	; 0xc0e <__stack+0x30f>
				{
				lcd_gotoxy(2, 0);
     bfe:	82 e0       	ldi	r24, 0x02	; 2
     c00:	60 e0       	ldi	r22, 0x00	; 0
     c02:	0e 94 07 0c 	call	0x180e	; 0x180e <lcd_gotoxy>
				lcd_puts("Capacidade:");
     c06:	80 eb       	ldi	r24, 0xB0	; 176
     c08:	91 e0       	ldi	r25, 0x01	; 1
     c0a:	0e 94 32 0c 	call	0x1864	; 0x1864 <lcd_puts>
				}
				
		if ((PINB&(1<<0)) && sw22 == 1) {	////////////////// PRIMEIRO SWITCH CAPACIDADE ///////////////
     c0e:	18 9b       	sbis	0x03, 0	; 3
     c10:	53 c0       	rjmp	.+166    	; 0xcb8 <__stack+0x3b9>
     c12:	80 91 dd 02 	lds	r24, 0x02DD
     c16:	90 91 de 02 	lds	r25, 0x02DE
     c1a:	81 30       	cpi	r24, 0x01	; 1
     c1c:	91 05       	cpc	r25, r1
     c1e:	09 f0       	breq	.+2      	; 0xc22 <__stack+0x323>
     c20:	4b c0       	rjmp	.+150    	; 0xcb8 <__stack+0x3b9>
     c22:	8f ef       	ldi	r24, 0xFF	; 255
     c24:	90 e7       	ldi	r25, 0x70	; 112
     c26:	a2 e0       	ldi	r26, 0x02	; 2
     c28:	81 50       	subi	r24, 0x01	; 1
     c2a:	90 40       	sbci	r25, 0x00	; 0
     c2c:	a0 40       	sbci	r26, 0x00	; 0
     c2e:	e1 f7       	brne	.-8      	; 0xc28 <__stack+0x329>
     c30:	00 c0       	rjmp	.+0      	; 0xc32 <__stack+0x333>
     c32:	00 00       	nop
					_delay_ms(800);
					if(!(PINB&(1<<0))){ 
     c34:	18 99       	sbic	0x03, 0	; 3
     c36:	09 c0       	rjmp	.+18     	; 0xc4a <__stack+0x34b>
     c38:	8f ef       	ldi	r24, 0xFF	; 255
     c3a:	90 e7       	ldi	r25, 0x70	; 112
     c3c:	a2 e0       	ldi	r26, 0x02	; 2
     c3e:	81 50       	subi	r24, 0x01	; 1
     c40:	90 40       	sbci	r25, 0x00	; 0
     c42:	a0 40       	sbci	r26, 0x00	; 0
     c44:	e1 f7       	brne	.-8      	; 0xc3e <__stack+0x33f>
     c46:	00 c0       	rjmp	.+0      	; 0xc48 <__stack+0x349>
     c48:	00 00       	nop
					_delay_ms(800);
					}
					cap +=100;
     c4a:	80 91 a4 02 	lds	r24, 0x02A4
     c4e:	90 91 a5 02 	lds	r25, 0x02A5
     c52:	8c 59       	subi	r24, 0x9C	; 156
     c54:	9f 4f       	sbci	r25, 0xFF	; 255
     c56:	90 93 a5 02 	sts	0x02A5, r25
     c5a:	80 93 a4 02 	sts	0x02A4, r24
					lcd_gotoxy(2, 1);
     c5e:	82 e0       	ldi	r24, 0x02	; 2
     c60:	61 e0       	ldi	r22, 0x01	; 1
     c62:	0e 94 07 0c 	call	0x180e	; 0x180e <lcd_gotoxy>
					dtostrf(cap,4,0,buffer);
     c66:	60 91 a4 02 	lds	r22, 0x02A4
     c6a:	70 91 a5 02 	lds	r23, 0x02A5
     c6e:	88 27       	eor	r24, r24
     c70:	77 fd       	sbrc	r23, 7
     c72:	80 95       	com	r24
     c74:	98 2f       	mov	r25, r24
     c76:	0e 94 2e 0e 	call	0x1c5c	; 0x1c5c <__floatsisf>
     c7a:	0f 2e       	mov	r0, r31
     c7c:	fb e6       	ldi	r31, 0x6B	; 107
     c7e:	ef 2e       	mov	r14, r31
     c80:	f3 e0       	ldi	r31, 0x03	; 3
     c82:	ff 2e       	mov	r15, r31
     c84:	f0 2d       	mov	r31, r0
     c86:	44 e0       	ldi	r20, 0x04	; 4
     c88:	20 e0       	ldi	r18, 0x00	; 0
     c8a:	87 01       	movw	r16, r14
     c8c:	0e 94 5b 10 	call	0x20b6	; 0x20b6 <dtostrf>
					lcd_puts(buffer);
     c90:	c7 01       	movw	r24, r14
     c92:	0e 94 32 0c 	call	0x1864	; 0x1864 <lcd_puts>
					lcd_gotoxy(8, 1);
     c96:	88 e0       	ldi	r24, 0x08	; 8
     c98:	61 e0       	ldi	r22, 0x01	; 1
     c9a:	0e 94 07 0c 	call	0x180e	; 0x180e <lcd_gotoxy>
					lcd_puts("mAh");
     c9e:	8c eb       	ldi	r24, 0xBC	; 188
     ca0:	91 e0       	ldi	r25, 0x01	; 1
     ca2:	0e 94 32 0c 	call	0x1864	; 0x1864 <lcd_puts>
     ca6:	8f ef       	ldi	r24, 0xFF	; 255
     ca8:	91 ee       	ldi	r25, 0xE1	; 225
     caa:	a4 e0       	ldi	r26, 0x04	; 4
     cac:	81 50       	subi	r24, 0x01	; 1
     cae:	90 40       	sbci	r25, 0x00	; 0
     cb0:	a0 40       	sbci	r26, 0x00	; 0
     cb2:	e1 f7       	brne	.-8      	; 0xcac <__stack+0x3ad>
     cb4:	00 c0       	rjmp	.+0      	; 0xcb6 <__stack+0x3b7>
     cb6:	00 00       	nop
					_delay_ms(1600);
					}
					
		if ((PINB & (1<<2)) && (sw22 == 1) && (cap !=0) ) { //////////////// SEGUNDO SWITCH CAPACIDADE ////
     cb8:	1a 9b       	sbis	0x03, 2	; 3
     cba:	93 c0       	rjmp	.+294    	; 0xde2 <__stack+0x4e3>
     cbc:	80 91 dd 02 	lds	r24, 0x02DD
     cc0:	90 91 de 02 	lds	r25, 0x02DE
     cc4:	81 30       	cpi	r24, 0x01	; 1
     cc6:	91 05       	cpc	r25, r1
     cc8:	09 f0       	breq	.+2      	; 0xccc <__stack+0x3cd>
     cca:	8b c0       	rjmp	.+278    	; 0xde2 <__stack+0x4e3>
     ccc:	80 91 a4 02 	lds	r24, 0x02A4
     cd0:	90 91 a5 02 	lds	r25, 0x02A5
     cd4:	00 97       	sbiw	r24, 0x00	; 0
     cd6:	09 f4       	brne	.+2      	; 0xcda <__stack+0x3db>
     cd8:	84 c0       	rjmp	.+264    	; 0xde2 <__stack+0x4e3>
     cda:	8f ef       	ldi	r24, 0xFF	; 255
     cdc:	90 e7       	ldi	r25, 0x70	; 112
     cde:	a2 e0       	ldi	r26, 0x02	; 2
     ce0:	81 50       	subi	r24, 0x01	; 1
     ce2:	90 40       	sbci	r25, 0x00	; 0
     ce4:	a0 40       	sbci	r26, 0x00	; 0
     ce6:	e1 f7       	brne	.-8      	; 0xce0 <__stack+0x3e1>
     ce8:	00 c0       	rjmp	.+0      	; 0xcea <__stack+0x3eb>
     cea:	00 00       	nop
					_delay_ms(800);
					if(!(PINB&(1<<2))){
     cec:	1a 99       	sbic	0x03, 2	; 3
     cee:	09 c0       	rjmp	.+18     	; 0xd02 <__stack+0x403>
     cf0:	8f ef       	ldi	r24, 0xFF	; 255
     cf2:	90 e7       	ldi	r25, 0x70	; 112
     cf4:	a2 e0       	ldi	r26, 0x02	; 2
     cf6:	81 50       	subi	r24, 0x01	; 1
     cf8:	90 40       	sbci	r25, 0x00	; 0
     cfa:	a0 40       	sbci	r26, 0x00	; 0
     cfc:	e1 f7       	brne	.-8      	; 0xcf6 <__stack+0x3f7>
     cfe:	00 c0       	rjmp	.+0      	; 0xd00 <__stack+0x401>
     d00:	00 00       	nop
					_delay_ms(800);
					}		
					lcd_clrscr();
     d02:	0e 94 15 0c 	call	0x182a	; 0x182a <lcd_clrscr>
					sw11 = 0;
     d06:	10 92 fc 02 	sts	0x02FC, r1
     d0a:	10 92 fb 02 	sts	0x02FB, r1
					sw22 = 0;
     d0e:	10 92 de 02 	sts	0x02DE, r1
     d12:	10 92 dd 02 	sts	0x02DD, r1
					PORTB |= (1 << 3); // Começa teste!!!
     d16:	2b 9a       	sbi	0x05, 3	; 5
					lcd_home();
     d18:	0e 94 19 0c 	call	0x1832	; 0x1832 <lcd_home>
					lcd_puts("A iniciar teste");
     d1c:	80 ec       	ldi	r24, 0xC0	; 192
     d1e:	91 e0       	ldi	r25, 0x01	; 1
     d20:	0e 94 32 0c 	call	0x1864	; 0x1864 <lcd_puts>
     d24:	8f ef       	ldi	r24, 0xFF	; 255
     d26:	99 e6       	ldi	r25, 0x69	; 105
     d28:	a8 e1       	ldi	r26, 0x18	; 24
     d2a:	81 50       	subi	r24, 0x01	; 1
     d2c:	90 40       	sbci	r25, 0x00	; 0
     d2e:	a0 40       	sbci	r26, 0x00	; 0
     d30:	e1 f7       	brne	.-8      	; 0xd2a <__stack+0x42b>
     d32:	00 c0       	rjmp	.+0      	; 0xd34 <__stack+0x435>
     d34:	00 00       	nop
					_delay_ms(8000);
					lcd_gotoxy(6, 1);
     d36:	86 e0       	ldi	r24, 0x06	; 6
     d38:	61 e0       	ldi	r22, 0x01	; 1
     d3a:	0e 94 07 0c 	call	0x180e	; 0x180e <lcd_gotoxy>
					lcd_puts(".");
     d3e:	00 ed       	ldi	r16, 0xD0	; 208
     d40:	11 e0       	ldi	r17, 0x01	; 1
     d42:	c8 01       	movw	r24, r16
     d44:	0e 94 32 0c 	call	0x1864	; 0x1864 <lcd_puts>
     d48:	8f ef       	ldi	r24, 0xFF	; 255
     d4a:	99 e6       	ldi	r25, 0x69	; 105
     d4c:	a8 e1       	ldi	r26, 0x18	; 24
     d4e:	81 50       	subi	r24, 0x01	; 1
     d50:	90 40       	sbci	r25, 0x00	; 0
     d52:	a0 40       	sbci	r26, 0x00	; 0
     d54:	e1 f7       	brne	.-8      	; 0xd4e <__stack+0x44f>
     d56:	00 c0       	rjmp	.+0      	; 0xd58 <__stack+0x459>
     d58:	00 00       	nop
					_delay_ms(8000);
					lcd_gotoxy(7, 1);
     d5a:	87 e0       	ldi	r24, 0x07	; 7
     d5c:	61 e0       	ldi	r22, 0x01	; 1
     d5e:	0e 94 07 0c 	call	0x180e	; 0x180e <lcd_gotoxy>
					lcd_puts(".");
     d62:	c8 01       	movw	r24, r16
     d64:	0e 94 32 0c 	call	0x1864	; 0x1864 <lcd_puts>
     d68:	8f ef       	ldi	r24, 0xFF	; 255
     d6a:	99 e6       	ldi	r25, 0x69	; 105
     d6c:	a8 e1       	ldi	r26, 0x18	; 24
     d6e:	81 50       	subi	r24, 0x01	; 1
     d70:	90 40       	sbci	r25, 0x00	; 0
     d72:	a0 40       	sbci	r26, 0x00	; 0
     d74:	e1 f7       	brne	.-8      	; 0xd6e <__stack+0x46f>
     d76:	00 c0       	rjmp	.+0      	; 0xd78 <__stack+0x479>
     d78:	00 00       	nop
					_delay_ms(8000);
					lcd_gotoxy(8, 1);
     d7a:	88 e0       	ldi	r24, 0x08	; 8
     d7c:	61 e0       	ldi	r22, 0x01	; 1
     d7e:	0e 94 07 0c 	call	0x180e	; 0x180e <lcd_gotoxy>
					lcd_puts(".");
     d82:	c8 01       	movw	r24, r16
     d84:	0e 94 32 0c 	call	0x1864	; 0x1864 <lcd_puts>
     d88:	8f ef       	ldi	r24, 0xFF	; 255
     d8a:	99 e6       	ldi	r25, 0x69	; 105
     d8c:	a8 e1       	ldi	r26, 0x18	; 24
     d8e:	81 50       	subi	r24, 0x01	; 1
     d90:	90 40       	sbci	r25, 0x00	; 0
     d92:	a0 40       	sbci	r26, 0x00	; 0
     d94:	e1 f7       	brne	.-8      	; 0xd8e <__stack+0x48f>
     d96:	00 c0       	rjmp	.+0      	; 0xd98 <__stack+0x499>
     d98:	00 00       	nop
					_delay_ms(8000);
					lcd_clrscr();
     d9a:	0e 94 15 0c 	call	0x182a	; 0x182a <lcd_clrscr>
					teste = 1;
     d9e:	81 e0       	ldi	r24, 0x01	; 1
     da0:	90 e0       	ldi	r25, 0x00	; 0
     da2:	90 93 84 03 	sts	0x0384, r25
     da6:	80 93 83 03 	sts	0x0383, r24
					inicio = 0;
     daa:	10 92 d2 02 	sts	0x02D2, r1
     dae:	10 92 d1 02 	sts	0x02D1, r1
					sw11 = 0;
     db2:	10 92 fc 02 	sts	0x02FC, r1
     db6:	10 92 fb 02 	sts	0x02FB, r1
					sw22 = 0;
     dba:	10 92 de 02 	sts	0x02DE, r1
     dbe:	10 92 dd 02 	sts	0x02DD, r1
					sw33 = 0;
     dc2:	10 92 c5 02 	sts	0x02C5, r1
     dc6:	10 92 c4 02 	sts	0x02C4, r1
					comecoms = millis_get(); // Obtem milisegundos desde o arranque do microcontrolador		
     dca:	0e 94 9b 0c 	call	0x1936	; 0x1936 <millis_get>
     dce:	dc 01       	movw	r26, r24
     dd0:	cb 01       	movw	r24, r22
     dd2:	80 93 b3 03 	sts	0x03B3, r24
     dd6:	90 93 b4 03 	sts	0x03B4, r25
     dda:	a0 93 b5 03 	sts	0x03B5, r26
     dde:	b0 93 b6 03 	sts	0x03B6, r27
{
	init();
	InitADC();
	while (1) 
    {
      while ((inicio == 1) && (teste == 0))
     de2:	80 91 d1 02 	lds	r24, 0x02D1
     de6:	90 91 d2 02 	lds	r25, 0x02D2
     dea:	81 30       	cpi	r24, 0x01	; 1
     dec:	91 05       	cpc	r25, r1
     dee:	09 f0       	breq	.+2      	; 0xdf2 <__stack+0x4f3>
     df0:	7b c4       	rjmp	.+2294   	; 0x16e8 <__stack+0xde9>
     df2:	80 91 83 03 	lds	r24, 0x0383
     df6:	90 91 84 03 	lds	r25, 0x0384
     dfa:	00 97       	sbiw	r24, 0x00	; 0
     dfc:	09 f0       	breq	.+2      	; 0xe00 <__stack+0x501>
     dfe:	74 c4       	rjmp	.+2280   	; 0x16e8 <__stack+0xde9>
	  {
		while(voltage_a0 < 0.8)//////// TESTE DE PILHA INSERIDA ///////////////////
     e00:	c0 90 df 02 	lds	r12, 0x02DF
     e04:	d0 90 e0 02 	lds	r13, 0x02E0
     e08:	e0 90 e1 02 	lds	r14, 0x02E1
     e0c:	f0 90 e2 02 	lds	r15, 0x02E2
     e10:	c7 01       	movw	r24, r14
     e12:	b6 01       	movw	r22, r12
     e14:	2d ec       	ldi	r18, 0xCD	; 205
     e16:	3c ec       	ldi	r19, 0xCC	; 204
     e18:	4c e4       	ldi	r20, 0x4C	; 76
     e1a:	5f e3       	ldi	r21, 0x3F	; 63
     e1c:	0e 94 8f 0d 	call	0x1b1e	; 0x1b1e <__cmpsf2>
     e20:	88 23       	and	r24, r24
     e22:	0c f4       	brge	.+2      	; 0xe26 <__stack+0x527>
     e24:	28 cd       	rjmp	.-1456   	; 0x876 <main+0x20>
     e26:	98 cd       	rjmp	.-1232   	; 0x958 <__stack+0x59>

		//////////////////////////////////// FIM DO INICIO ////////////////////////////////////
		//////////////////////////////////// COMEÇA TESTE //////////////////////////////////////
		
      while ((teste == 1) && (inicio == 0)) {      		
			if (Vload==0)
     e28:	60 91 b0 02 	lds	r22, 0x02B0
     e2c:	70 91 b1 02 	lds	r23, 0x02B1
     e30:	80 91 b2 02 	lds	r24, 0x02B2
     e34:	90 91 b3 02 	lds	r25, 0x02B3
     e38:	20 e0       	ldi	r18, 0x00	; 0
     e3a:	30 e0       	ldi	r19, 0x00	; 0
     e3c:	a9 01       	movw	r20, r18
     e3e:	0e 94 8f 0d 	call	0x1b1e	; 0x1b1e <__cmpsf2>
     e42:	88 23       	and	r24, r24
     e44:	59 f4       	brne	.+22     	; 0xe5c <__stack+0x55d>
			{	
			  	sprintf(buffer_tx,"------TESTE INICIADO------\r\n");
     e46:	e7 e0       	ldi	r30, 0x07	; 7
     e48:	f3 e0       	ldi	r31, 0x03	; 3
     e4a:	a2 ed       	ldi	r26, 0xD2	; 210
     e4c:	b1 e0       	ldi	r27, 0x01	; 1
     e4e:	8d e1       	ldi	r24, 0x1D	; 29
     e50:	0d 90       	ld	r0, X+
     e52:	01 92       	st	Z+, r0
     e54:	81 50       	subi	r24, 0x01	; 1
     e56:	e1 f7       	brne	.-8      	; 0xe50 <__stack+0x551>
			  	TX_buffer(); 						
     e58:	0e 94 78 01 	call	0x2f0	; 0x2f0 <TX_buffer>
		  	}

			///////////// A0 ////////////
			lcd_home();
     e5c:	0e 94 19 0c 	call	0x1832	; 0x1832 <lcd_home>
			dtostrf(voltage_a0,3,2,buffer_a0);
     e60:	60 91 df 02 	lds	r22, 0x02DF
     e64:	70 91 e0 02 	lds	r23, 0x02E0
     e68:	80 91 e1 02 	lds	r24, 0x02E1
     e6c:	90 91 e2 02 	lds	r25, 0x02E2
     e70:	43 e0       	ldi	r20, 0x03	; 3
     e72:	22 e0       	ldi	r18, 0x02	; 2
     e74:	81 01       	movw	r16, r2
     e76:	0e 94 5b 10 	call	0x20b6	; 0x20b6 <dtostrf>
			lcd_puts(buffer_a0);
     e7a:	c1 01       	movw	r24, r2
     e7c:	0e 94 32 0c 	call	0x1864	; 0x1864 <lcd_puts>
			
			lcd_gotoxy(5,0);
     e80:	85 e0       	ldi	r24, 0x05	; 5
     e82:	60 e0       	ldi	r22, 0x00	; 0
     e84:	0e 94 07 0c 	call	0x180e	; 0x180e <lcd_gotoxy>
			lcd_puts("V");
     e88:	8f ee       	ldi	r24, 0xEF	; 239
     e8a:	91 e0       	ldi	r25, 0x01	; 1
     e8c:	0e 94 32 0c 	call	0x1864	; 0x1864 <lcd_puts>
			///////////// A1 ////////////
			current = ( voltage_a1)*1000 ; //Formula Corrente em mA!!!
     e90:	60 91 a7 03 	lds	r22, 0x03A7
     e94:	70 91 a8 03 	lds	r23, 0x03A8
     e98:	80 91 a9 03 	lds	r24, 0x03A9
     e9c:	90 91 aa 03 	lds	r25, 0x03AA
     ea0:	20 e0       	ldi	r18, 0x00	; 0
     ea2:	30 e0       	ldi	r19, 0x00	; 0
     ea4:	4a e7       	ldi	r20, 0x7A	; 122
     ea6:	54 e4       	ldi	r21, 0x44	; 68
     ea8:	0e 94 61 0f 	call	0x1ec2	; 0x1ec2 <__mulsf3>
     eac:	dc 01       	movw	r26, r24
     eae:	cb 01       	movw	r24, r22
     eb0:	80 93 b8 02 	sts	0x02B8, r24
     eb4:	90 93 b9 02 	sts	0x02B9, r25
     eb8:	a0 93 ba 02 	sts	0x02BA, r26
     ebc:	b0 93 bb 02 	sts	0x02BB, r27
			lcd_gotoxy(10, 0);	
     ec0:	8a e0       	ldi	r24, 0x0A	; 10
     ec2:	60 e0       	ldi	r22, 0x00	; 0
     ec4:	0e 94 07 0c 	call	0x180e	; 0x180e <lcd_gotoxy>
			dtostrf(current,3,0,buffer_current);
     ec8:	60 91 b8 02 	lds	r22, 0x02B8
     ecc:	70 91 b9 02 	lds	r23, 0x02B9
     ed0:	80 91 ba 02 	lds	r24, 0x02BA
     ed4:	90 91 bb 02 	lds	r25, 0x02BB
     ed8:	43 e0       	ldi	r20, 0x03	; 3
     eda:	20 e0       	ldi	r18, 0x00	; 0
     edc:	03 ed       	ldi	r16, 0xD3	; 211
     ede:	12 e0       	ldi	r17, 0x02	; 2
     ee0:	0e 94 5b 10 	call	0x20b6	; 0x20b6 <dtostrf>
			lcd_puts(buffer_current);
     ee4:	c8 01       	movw	r24, r16
     ee6:	0e 94 32 0c 	call	0x1864	; 0x1864 <lcd_puts>
			
			lcd_gotoxy(14,0);
     eea:	8e e0       	ldi	r24, 0x0E	; 14
     eec:	60 e0       	ldi	r22, 0x00	; 0
     eee:	0e 94 07 0c 	call	0x180e	; 0x180e <lcd_gotoxy>
			lcd_puts("mA");	
     ef2:	81 ef       	ldi	r24, 0xF1	; 241
     ef4:	91 e0       	ldi	r25, 0x01	; 1
     ef6:	0e 94 32 0c 	call	0x1864	; 0x1864 <lcd_puts>
			///////////// CAPACIDADE ////////////
			runMillis = millis_get() - comecoms;
     efa:	0e 94 9b 0c 	call	0x1936	; 0x1936 <millis_get>
     efe:	dc 01       	movw	r26, r24
     f00:	cb 01       	movw	r24, r22
     f02:	e3 eb       	ldi	r30, 0xB3	; 179
     f04:	f3 e0       	ldi	r31, 0x03	; 3
     f06:	20 81       	ld	r18, Z
     f08:	31 81       	ldd	r19, Z+1	; 0x01
     f0a:	82 1b       	sub	r24, r18
     f0c:	93 0b       	sbc	r25, r19
     f0e:	90 93 90 03 	sts	0x0390, r25
     f12:	80 93 8f 03 	sts	0x038F, r24
			temporizadorms = millis_get() - comecoms;
     f16:	0e 94 9b 0c 	call	0x1936	; 0x1936 <millis_get>
     f1a:	dc 01       	movw	r26, r24
     f1c:	cb 01       	movw	r24, r22
     f1e:	40 91 b3 03 	lds	r20, 0x03B3
     f22:	50 91 b4 03 	lds	r21, 0x03B4
     f26:	60 91 b5 03 	lds	r22, 0x03B5
     f2a:	70 91 b6 03 	lds	r23, 0x03B6
     f2e:	6c 01       	movw	r12, r24
     f30:	7d 01       	movw	r14, r26
     f32:	c4 1a       	sub	r12, r20
     f34:	d5 0a       	sbc	r13, r21
     f36:	e6 0a       	sbc	r14, r22
     f38:	f7 0a       	sbc	r15, r23
     f3a:	c0 92 95 03 	sts	0x0395, r12
     f3e:	d0 92 96 03 	sts	0x0396, r13
     f42:	e0 92 97 03 	sts	0x0397, r14
     f46:	f0 92 98 03 	sts	0x0398, r15
			millisPassed=runMillis-previousMillis;
     f4a:	00 91 8f 03 	lds	r16, 0x038F
     f4e:	10 91 90 03 	lds	r17, 0x0390
     f52:	80 91 a8 02 	lds	r24, 0x02A8
     f56:	90 91 a9 02 	lds	r25, 0x02A9
     f5a:	b8 01       	movw	r22, r16
     f5c:	68 1b       	sub	r22, r24
     f5e:	79 0b       	sbc	r23, r25
     f60:	70 93 a7 02 	sts	0x02A7, r23
     f64:	60 93 a6 02 	sts	0x02A6, r22
			capacidade = (capacidade + (current) * (millisPassed / 3600000.0)); // mAh = mAh + mAmperes * Horas
     f68:	80 e0       	ldi	r24, 0x00	; 0
     f6a:	90 e0       	ldi	r25, 0x00	; 0
     f6c:	0e 94 2c 0e 	call	0x1c58	; 0x1c58 <__floatunsisf>
     f70:	20 e0       	ldi	r18, 0x00	; 0
     f72:	3a eb       	ldi	r19, 0xBA	; 186
     f74:	4b e5       	ldi	r20, 0x5B	; 91
     f76:	5a e4       	ldi	r21, 0x4A	; 74
     f78:	0e 94 93 0d 	call	0x1b26	; 0x1b26 <__divsf3>
     f7c:	20 91 b8 02 	lds	r18, 0x02B8
     f80:	30 91 b9 02 	lds	r19, 0x02B9
     f84:	40 91 ba 02 	lds	r20, 0x02BA
     f88:	50 91 bb 02 	lds	r21, 0x02BB
     f8c:	0e 94 61 0f 	call	0x1ec2	; 0x1ec2 <__mulsf3>
     f90:	20 91 bc 02 	lds	r18, 0x02BC
     f94:	30 91 bd 02 	lds	r19, 0x02BD
     f98:	40 91 be 02 	lds	r20, 0x02BE
     f9c:	50 91 bf 02 	lds	r21, 0x02BF
     fa0:	0e 94 2b 0d 	call	0x1a56	; 0x1a56 <__addsf3>
     fa4:	b6 2e       	mov	r11, r22
     fa6:	a7 2e       	mov	r10, r23
     fa8:	98 2e       	mov	r9, r24
     faa:	89 2e       	mov	r8, r25
     fac:	86 2f       	mov	r24, r22
     fae:	9a 2d       	mov	r25, r10
     fb0:	a9 2d       	mov	r26, r9
     fb2:	b8 2d       	mov	r27, r8
     fb4:	80 93 bc 02 	sts	0x02BC, r24
     fb8:	90 93 bd 02 	sts	0x02BD, r25
     fbc:	a0 93 be 02 	sts	0x02BE, r26
     fc0:	b0 93 bf 02 	sts	0x02BF, r27
			previousMillis=runMillis;
     fc4:	10 93 a9 02 	sts	0x02A9, r17
     fc8:	00 93 a8 02 	sts	0x02A8, r16
			minutos= temporizadorms / 60000; // Calcula min
     fcc:	c7 01       	movw	r24, r14
     fce:	b6 01       	movw	r22, r12
     fd0:	20 e6       	ldi	r18, 0x60	; 96
     fd2:	3a ee       	ldi	r19, 0xEA	; 234
     fd4:	40 e0       	ldi	r20, 0x00	; 0
     fd6:	50 e0       	ldi	r21, 0x00	; 0
     fd8:	0e 94 0a 10 	call	0x2014	; 0x2014 <__udivmodsi4>
     fdc:	30 93 b2 03 	sts	0x03B2, r19
     fe0:	20 93 b1 03 	sts	0x03B1, r18
			
			dtostrf(capacidade,4,0,buffer_capacidade);
     fe4:	8b 2d       	mov	r24, r11
     fe6:	9a 2d       	mov	r25, r10
     fe8:	a9 2d       	mov	r26, r9
     fea:	b8 2d       	mov	r27, r8
     fec:	bc 01       	movw	r22, r24
     fee:	cd 01       	movw	r24, r26
     ff0:	44 e0       	ldi	r20, 0x04	; 4
     ff2:	20 e0       	ldi	r18, 0x00	; 0
     ff4:	83 01       	movw	r16, r6
     ff6:	0e 94 5b 10 	call	0x20b6	; 0x20b6 <dtostrf>
			lcd_gotoxy(0, 1);
     ffa:	80 e0       	ldi	r24, 0x00	; 0
     ffc:	61 e0       	ldi	r22, 0x01	; 1
     ffe:	0e 94 07 0c 	call	0x180e	; 0x180e <lcd_gotoxy>
			lcd_puts(buffer_capacidade);
    1002:	c3 01       	movw	r24, r6
    1004:	0e 94 32 0c 	call	0x1864	; 0x1864 <lcd_puts>
			lcd_gotoxy(5,1);
    1008:	85 e0       	ldi	r24, 0x05	; 5
    100a:	61 e0       	ldi	r22, 0x01	; 1
    100c:	0e 94 07 0c 	call	0x180e	; 0x180e <lcd_gotoxy>
			lcd_puts("mAh"); // Mostra acumulador de capacidade ate o teste acabar
    1010:	8c eb       	ldi	r24, 0xBC	; 188
    1012:	91 e0       	ldi	r25, 0x01	; 1
    1014:	0e 94 32 0c 	call	0x1864	; 0x1864 <lcd_puts>
			///////////// TEMPERATURA ////////////
			lcd_gotoxy(10, 1);
    1018:	8a e0       	ldi	r24, 0x0A	; 10
    101a:	61 e0       	ldi	r22, 0x01	; 1
    101c:	0e 94 07 0c 	call	0x180e	; 0x180e <lcd_gotoxy>
			dtostrf(temp_a2,3,0,buffer_temp);
    1020:	60 91 4f 03 	lds	r22, 0x034F
    1024:	70 91 50 03 	lds	r23, 0x0350
    1028:	80 91 51 03 	lds	r24, 0x0351
    102c:	90 91 52 03 	lds	r25, 0x0352
    1030:	43 e0       	ldi	r20, 0x03	; 3
    1032:	20 e0       	ldi	r18, 0x00	; 0
    1034:	82 01       	movw	r16, r4
    1036:	0e 94 5b 10 	call	0x20b6	; 0x20b6 <dtostrf>
			lcd_puts(buffer_temp);
    103a:	c2 01       	movw	r24, r4
    103c:	0e 94 32 0c 	call	0x1864	; 0x1864 <lcd_puts>
			lcd_gotoxy(14,1);
    1040:	8e e0       	ldi	r24, 0x0E	; 14
    1042:	61 e0       	ldi	r22, 0x01	; 1
    1044:	0e 94 07 0c 	call	0x180e	; 0x180e <lcd_gotoxy>
			lcd_putc(223);
    1048:	8f ed       	ldi	r24, 0xDF	; 223
    104a:	0e 94 1d 0c 	call	0x183a	; 0x183a <lcd_putc>
			lcd_gotoxy(15,1);
    104e:	8f e0       	ldi	r24, 0x0F	; 15
    1050:	61 e0       	ldi	r22, 0x01	; 1
    1052:	0e 94 07 0c 	call	0x180e	; 0x180e <lcd_gotoxy>
			lcd_puts("C");
    1056:	84 ef       	ldi	r24, 0xF4	; 244
    1058:	91 e0       	ldi	r25, 0x01	; 1
    105a:	0e 94 32 0c 	call	0x1864	; 0x1864 <lcd_puts>
			
			res_term = log(((10240000/adc_result_a3) - 10000)); //res_term =  R_7.4k * (ADC_1024 / adc_result3)-4.7k)
    105e:	20 91 53 03 	lds	r18, 0x0353
    1062:	30 91 54 03 	lds	r19, 0x0354
    1066:	40 e0       	ldi	r20, 0x00	; 0
    1068:	50 e0       	ldi	r21, 0x00	; 0
    106a:	60 e0       	ldi	r22, 0x00	; 0
    106c:	70 e4       	ldi	r23, 0x40	; 64
    106e:	8c e9       	ldi	r24, 0x9C	; 156
    1070:	90 e0       	ldi	r25, 0x00	; 0
    1072:	0e 94 2c 10 	call	0x2058	; 0x2058 <__divmodsi4>
    1076:	ca 01       	movw	r24, r20
    1078:	b9 01       	movw	r22, r18
    107a:	60 51       	subi	r22, 0x10	; 16
    107c:	77 42       	sbci	r23, 0x27	; 39
    107e:	80 40       	sbci	r24, 0x00	; 0
    1080:	90 40       	sbci	r25, 0x00	; 0
    1082:	0e 94 2e 0e 	call	0x1c5c	; 0x1c5c <__floatsisf>
    1086:	0e 94 e7 0e 	call	0x1dce	; 0x1dce <log>
    108a:	6b 01       	movw	r12, r22
    108c:	7c 01       	movw	r14, r24
    108e:	60 93 91 03 	sts	0x0391, r22
    1092:	70 93 92 03 	sts	0x0392, r23
    1096:	80 93 93 03 	sts	0x0393, r24
    109a:	90 93 94 03 	sts	0x0394, r25
			temp_term = 1 / (0.001129148 + (0.000234125 * res_term) + (0.0000000876741 * res_term * res_term * res_term));
    109e:	23 e7       	ldi	r18, 0x73	; 115
    10a0:	3f e7       	ldi	r19, 0x7F	; 127
    10a2:	45 e7       	ldi	r20, 0x75	; 117
    10a4:	59 e3       	ldi	r21, 0x39	; 57
    10a6:	0e 94 61 0f 	call	0x1ec2	; 0x1ec2 <__mulsf3>
    10aa:	2b ee       	ldi	r18, 0xEB	; 235
    10ac:	3f ef       	ldi	r19, 0xFF	; 255
    10ae:	43 e9       	ldi	r20, 0x93	; 147
    10b0:	5a e3       	ldi	r21, 0x3A	; 58
    10b2:	0e 94 2b 0d 	call	0x1a56	; 0x1a56 <__addsf3>
    10b6:	4b 01       	movw	r8, r22
    10b8:	5c 01       	movw	r10, r24
    10ba:	c7 01       	movw	r24, r14
    10bc:	b6 01       	movw	r22, r12
    10be:	29 e5       	ldi	r18, 0x59	; 89
    10c0:	37 e4       	ldi	r19, 0x47	; 71
    10c2:	4c eb       	ldi	r20, 0xBC	; 188
    10c4:	53 e3       	ldi	r21, 0x33	; 51
    10c6:	0e 94 61 0f 	call	0x1ec2	; 0x1ec2 <__mulsf3>
    10ca:	9b 01       	movw	r18, r22
    10cc:	ac 01       	movw	r20, r24
    10ce:	c7 01       	movw	r24, r14
    10d0:	b6 01       	movw	r22, r12
    10d2:	0e 94 61 0f 	call	0x1ec2	; 0x1ec2 <__mulsf3>
    10d6:	9b 01       	movw	r18, r22
    10d8:	ac 01       	movw	r20, r24
    10da:	c7 01       	movw	r24, r14
    10dc:	b6 01       	movw	r22, r12
    10de:	0e 94 61 0f 	call	0x1ec2	; 0x1ec2 <__mulsf3>
    10e2:	9b 01       	movw	r18, r22
    10e4:	ac 01       	movw	r20, r24
    10e6:	c5 01       	movw	r24, r10
    10e8:	b4 01       	movw	r22, r8
    10ea:	0e 94 2b 0d 	call	0x1a56	; 0x1a56 <__addsf3>
    10ee:	9b 01       	movw	r18, r22
    10f0:	ac 01       	movw	r20, r24
    10f2:	60 e0       	ldi	r22, 0x00	; 0
    10f4:	70 e0       	ldi	r23, 0x00	; 0
    10f6:	80 e8       	ldi	r24, 0x80	; 128
    10f8:	9f e3       	ldi	r25, 0x3F	; 63
    10fa:	0e 94 93 0d 	call	0x1b26	; 0x1b26 <__divsf3>
			temp_term = temp_term - 273.15;           // Convert Kelvin to Celcius
    10fe:	23 e3       	ldi	r18, 0x33	; 51
    1100:	33 e9       	ldi	r19, 0x93	; 147
    1102:	48 e8       	ldi	r20, 0x88	; 136
    1104:	53 e4       	ldi	r21, 0x43	; 67
    1106:	0e 94 2a 0d 	call	0x1a54	; 0x1a54 <__subsf3>
    110a:	26 2f       	mov	r18, r22
    110c:	37 2f       	mov	r19, r23
    110e:	f8 2f       	mov	r31, r24
    1110:	e9 2f       	mov	r30, r25
    1112:	46 2f       	mov	r20, r22
    1114:	57 2f       	mov	r21, r23
    1116:	68 2f       	mov	r22, r24
    1118:	79 2f       	mov	r23, r25
    111a:	40 93 a3 03 	sts	0x03A3, r20
    111e:	50 93 a4 03 	sts	0x03A4, r21
    1122:	60 93 a5 03 	sts	0x03A5, r22
    1126:	70 93 a6 03 	sts	0x03A6, r23
			
			//lcd_gotoxy(12, 1);
			//dtostrf(temp_term,2,0,buffer_term);
			//lcd_puts(buffer_term);
			
			if (temp_term > 70)
    112a:	82 2f       	mov	r24, r18
    112c:	93 2f       	mov	r25, r19
    112e:	af 2f       	mov	r26, r31
    1130:	be 2f       	mov	r27, r30
    1132:	bc 01       	movw	r22, r24
    1134:	cd 01       	movw	r24, r26
    1136:	20 e0       	ldi	r18, 0x00	; 0
    1138:	30 e0       	ldi	r19, 0x00	; 0
    113a:	4c e8       	ldi	r20, 0x8C	; 140
    113c:	52 e4       	ldi	r21, 0x42	; 66
    113e:	0e 94 de 0e 	call	0x1dbc	; 0x1dbc <__gesf2>
    1142:	18 16       	cp	r1, r24
    1144:	9c f5       	brge	.+102    	; 0x11ac <__stack+0x8ad>
			{
				teste = 0;
    1146:	10 92 84 03 	sts	0x0384, r1
    114a:	10 92 83 03 	sts	0x0383, r1
				PORTC &= ~(1 << 4); // LED verde desliga
    114e:	44 98       	cbi	0x08, 4	; 8
				PORTC |= (1<<5); // LED vermelho liga
    1150:	45 9a       	sbi	0x08, 5	; 8
				lcd_clrscr();
    1152:	0e 94 15 0c 	call	0x182a	; 0x182a <lcd_clrscr>
				lcd_gotoxy(2, 0);
    1156:	82 e0       	ldi	r24, 0x02	; 2
    1158:	60 e0       	ldi	r22, 0x00	; 0
    115a:	0e 94 07 0c 	call	0x180e	; 0x180e <lcd_gotoxy>
				lcd_puts("TEMPERATURA");
    115e:	86 ef       	ldi	r24, 0xF6	; 246
    1160:	91 e0       	ldi	r25, 0x01	; 1
    1162:	0e 94 32 0c 	call	0x1864	; 0x1864 <lcd_puts>
				lcd_gotoxy(4, 1);
    1166:	84 e0       	ldi	r24, 0x04	; 4
    1168:	61 e0       	ldi	r22, 0x01	; 1
    116a:	0e 94 07 0c 	call	0x180e	; 0x180e <lcd_gotoxy>
				lcd_puts("ELEVADA");
    116e:	82 e0       	ldi	r24, 0x02	; 2
    1170:	92 e0       	ldi	r25, 0x02	; 2
    1172:	0e 94 32 0c 	call	0x1864	; 0x1864 <lcd_puts>
				//////////////////Comunicação pela porta serie ///////////////////
				sprintf(buffer_tx,"------TESTE INTERROMPIDO------\r\n");
    1176:	a7 e0       	ldi	r26, 0x07	; 7
    1178:	b3 e0       	ldi	r27, 0x03	; 3
    117a:	ea e0       	ldi	r30, 0x0A	; 10
    117c:	f2 e0       	ldi	r31, 0x02	; 2
    117e:	81 e2       	ldi	r24, 0x21	; 33
    1180:	01 90       	ld	r0, Z+
    1182:	0d 92       	st	X+, r0
    1184:	81 50       	subi	r24, 0x01	; 1
    1186:	e1 f7       	brne	.-8      	; 0x1180 <__stack+0x881>
				TX_buffer();
    1188:	0e 94 78 01 	call	0x2f0	; 0x2f0 <TX_buffer>
    118c:	8f e3       	ldi	r24, 0x3F	; 63
    118e:	92 e4       	ldi	r25, 0x42	; 66
    1190:	af e0       	ldi	r26, 0x0F	; 15
    1192:	81 50       	subi	r24, 0x01	; 1
    1194:	90 40       	sbci	r25, 0x00	; 0
    1196:	a0 40       	sbci	r26, 0x00	; 0
    1198:	e1 f7       	brne	.-8      	; 0x1192 <__stack+0x893>
    119a:	00 c0       	rjmp	.+0      	; 0x119c <__stack+0x89d>
    119c:	00 00       	nop
				/////////////////////////////////////
				_delay_ms(5000);
				lcd_clrscr();
    119e:	0e 94 15 0c 	call	0x182a	; 0x182a <lcd_clrscr>
				apagar_variaveis();
    11a2:	0e 94 98 01 	call	0x330	; 0x330 <apagar_variaveis>
				PORTC &= ~(1 << 5); // LED vermelho desliga
    11a6:	45 98       	cbi	0x08, 5	; 8
				main();
    11a8:	0e 94 2b 04 	call	0x856	; 0x856 <main>
			}
		
				if (voltage_a0 < V_cutoff) // TESTA SE FOR TIRADA A PILHA
    11ac:	60 91 df 02 	lds	r22, 0x02DF
    11b0:	70 91 e0 02 	lds	r23, 0x02E0
    11b4:	80 91 e1 02 	lds	r24, 0x02E1
    11b8:	90 91 e2 02 	lds	r25, 0x02E2
    11bc:	20 91 b4 02 	lds	r18, 0x02B4
    11c0:	30 91 b5 02 	lds	r19, 0x02B5
    11c4:	40 91 b6 02 	lds	r20, 0x02B6
    11c8:	50 91 b7 02 	lds	r21, 0x02B7
    11cc:	0e 94 8f 0d 	call	0x1b1e	; 0x1b1e <__cmpsf2>
    11d0:	88 23       	and	r24, r24
    11d2:	0c f0       	brlt	.+2      	; 0x11d6 <__stack+0x8d7>
    11d4:	95 c2       	rjmp	.+1322   	; 0x1700 <__stack+0xe01>
				{    
				teste=0;
    11d6:	10 92 84 03 	sts	0x0384, r1
    11da:	10 92 83 03 	sts	0x0383, r1
				lcd_clrscr();
    11de:	0e 94 15 0c 	call	0x182a	; 0x182a <lcd_clrscr>
    11e2:	8f ef       	ldi	r24, 0xFF	; 255
    11e4:	93 ed       	ldi	r25, 0xD3	; 211
    11e6:	a0 e3       	ldi	r26, 0x30	; 48
    11e8:	81 50       	subi	r24, 0x01	; 1
    11ea:	90 40       	sbci	r25, 0x00	; 0
    11ec:	a0 40       	sbci	r26, 0x00	; 0
    11ee:	e1 f7       	brne	.-8      	; 0x11e8 <__stack+0x8e9>
    11f0:	00 c0       	rjmp	.+0      	; 0x11f2 <__stack+0x8f3>
    11f2:	00 00       	nop
	  									PORTC |= 0b00010000;	//LED verde ligado
	   									PORTB &= ~(1 << PB3); // ACABA TESTE!!!!
	   									acum = 1;
										percent = (capacidade/cap)*100; // percentagem = (capacidade resultante do teste / capacidade inserida) * 100
										R_int = ((((Voc - Vload)))/Vload)*1000; // Calcula resistência interna
										dtostrf(R_int,3,0,buffer_rint);
    11f4:	0f 2e       	mov	r0, r31
    11f6:	fd ef       	ldi	r31, 0xFD	; 253
    11f8:	af 2e       	mov	r10, r31
    11fa:	f2 e0       	ldi	r31, 0x02	; 2
    11fc:	bf 2e       	mov	r11, r31
    11fe:	f0 2d       	mov	r31, r0
	    								lcd_gotoxy(1, 0);
	   									lcd_puts("TESTE COMPLETO");
    1200:	0f 2e       	mov	r0, r31
    1202:	fd e3       	ldi	r31, 0x3D	; 61
    1204:	6f 2e       	mov	r6, r31
    1206:	f2 e0       	ldi	r31, 0x02	; 2
    1208:	7f 2e       	mov	r7, r31
    120a:	f0 2d       	mov	r31, r0
										lcd_gotoxy(0, 1);
									    dtostrf(capacidade,4,0,buffer_capacidade);
    120c:	0f 2e       	mov	r0, r31
    120e:	f1 ef       	ldi	r31, 0xF1	; 241
    1210:	8f 2e       	mov	r8, r31
    1212:	f2 e0       	ldi	r31, 0x02	; 2
    1214:	9f 2e       	mov	r9, r31
    1216:	f0 2d       	mov	r31, r0
									    dtostrf(percent,2,0,buffer);
									    lcd_puts(buffer);
										lcd_gotoxy(14,1);
										lcd_puts("%");
										//////////////////Comunicação pela porta serie ///////////////////
										sprintf(buffer_tx,"------TESTE COMPLETO------\r\n");
    1218:	a7 e0       	ldi	r26, 0x07	; 7
    121a:	b3 e0       	ldi	r27, 0x03	; 3
    121c:	a9 83       	std	Y+1, r26	; 0x01
    121e:	ba 83       	std	Y+2, r27	; 0x02
													lcd_clrscr();
													lcd_home(); 
													dtostrf(R_int,4,0,buffer_rint);
													lcd_puts(buffer_rint);
													lcd_gotoxy(5,0);
													lcd_puts("mOhm");   // Mostra Resistencia Interna
    1220:	0f 2e       	mov	r0, r31
    1222:	ff e8       	ldi	r31, 0x8F	; 143
    1224:	2f 2e       	mov	r2, r31
    1226:	f2 e0       	ldi	r31, 0x02	; 2
    1228:	3f 2e       	mov	r3, r31
    122a:	f0 2d       	mov	r31, r0
				{    
				teste=0;
				lcd_clrscr();
				_delay_ms(16000);
				while(1){
						if (voltage_a0 < 0.3) //<       /////////////// TIRARAM PILHA ///////////////
    122c:	60 91 df 02 	lds	r22, 0x02DF
    1230:	70 91 e0 02 	lds	r23, 0x02E0
    1234:	80 91 e1 02 	lds	r24, 0x02E1
    1238:	90 91 e2 02 	lds	r25, 0x02E2
    123c:	2a e9       	ldi	r18, 0x9A	; 154
    123e:	39 e9       	ldi	r19, 0x99	; 153
    1240:	49 e9       	ldi	r20, 0x99	; 153
    1242:	5e e3       	ldi	r21, 0x3E	; 62
    1244:	0e 94 8f 0d 	call	0x1b1e	; 0x1b1e <__cmpsf2>
    1248:	88 23       	and	r24, r24
    124a:	74 f5       	brge	.+92     	; 0x12a8 <__stack+0x9a9>
								{
								  PORTC &= ~(1 << 4); // LED verde desliga
    124c:	44 98       	cbi	0x08, 4	; 8
								  PORTC |= (1<<5); // LED vermelho liga
    124e:	45 9a       	sbi	0x08, 5	; 8
	 							  PORTB &= ~(1 << 3); // Pin 3 goes low - ACABA TESTE!!!!
    1250:	2b 98       	cbi	0x05, 3	; 5
								  //////////////////Comunicação pela porta serie ///////////////////
								  sprintf(buffer_tx,"------TESTE INTERROMPIDO------\r\n");
    1252:	a7 e0       	ldi	r26, 0x07	; 7
    1254:	b3 e0       	ldi	r27, 0x03	; 3
    1256:	ea e0       	ldi	r30, 0x0A	; 10
    1258:	f2 e0       	ldi	r31, 0x02	; 2
    125a:	81 e2       	ldi	r24, 0x21	; 33
    125c:	01 90       	ld	r0, Z+
    125e:	0d 92       	st	X+, r0
    1260:	81 50       	subi	r24, 0x01	; 1
    1262:	e1 f7       	brne	.-8      	; 0x125c <__stack+0x95d>
								  TX_buffer();
    1264:	0e 94 78 01 	call	0x2f0	; 0x2f0 <TX_buffer>
								  ////////////////// ///////////////////
								  lcd_gotoxy(6, 0);
    1268:	86 e0       	ldi	r24, 0x06	; 6
    126a:	60 e0       	ldi	r22, 0x00	; 0
    126c:	0e 94 07 0c 	call	0x180e	; 0x180e <lcd_gotoxy>
								  lcd_puts("ERRO");
    1270:	8b e2       	ldi	r24, 0x2B	; 43
    1272:	92 e0       	ldi	r25, 0x02	; 2
    1274:	0e 94 32 0c 	call	0x1864	; 0x1864 <lcd_puts>
								  lcd_gotoxy(2, 1);
    1278:	82 e0       	ldi	r24, 0x02	; 2
    127a:	61 e0       	ldi	r22, 0x01	; 1
    127c:	0e 94 07 0c 	call	0x180e	; 0x180e <lcd_gotoxy>
								  lcd_puts("Insira Pilha");
    1280:	80 e3       	ldi	r24, 0x30	; 48
    1282:	92 e0       	ldi	r25, 0x02	; 2
    1284:	0e 94 32 0c 	call	0x1864	; 0x1864 <lcd_puts>
    1288:	8f ef       	ldi	r24, 0xFF	; 255
    128a:	93 e2       	ldi	r25, 0x23	; 35
    128c:	a4 ef       	ldi	r26, 0xF4	; 244
    128e:	81 50       	subi	r24, 0x01	; 1
    1290:	90 40       	sbci	r25, 0x00	; 0
    1292:	a0 40       	sbci	r26, 0x00	; 0
    1294:	e1 f7       	brne	.-8      	; 0x128e <__stack+0x98f>
    1296:	00 c0       	rjmp	.+0      	; 0x1298 <__stack+0x999>
    1298:	00 00       	nop
								  _delay_ms(80000);
								  lcd_clrscr();
    129a:	0e 94 15 0c 	call	0x182a	; 0x182a <lcd_clrscr>
								  apagar_variaveis();
    129e:	0e 94 98 01 	call	0x330	; 0x330 <apagar_variaveis>
								  PORTC &= ~(1 << 5); // LED vermelho desliga
    12a2:	45 98       	cbi	0x08, 5	; 8
								  main();
    12a4:	0e 94 2b 04 	call	0x856	; 0x856 <main>
 									 }
      								else {    //////////////// TESTE COMPLETO //////////////////
										lcd_clrscr();
    12a8:	0e 94 15 0c 	call	0x182a	; 0x182a <lcd_clrscr>
	  									PORTC |= 0b00010000;	//LED verde ligado
    12ac:	44 9a       	sbi	0x08, 4	; 8
	   									PORTB &= ~(1 << PB3); // ACABA TESTE!!!!
    12ae:	2b 98       	cbi	0x05, 3	; 5
	   									acum = 1;
    12b0:	81 e0       	ldi	r24, 0x01	; 1
    12b2:	90 e0       	ldi	r25, 0x00	; 0
    12b4:	90 93 af 02 	sts	0x02AF, r25
    12b8:	80 93 ae 02 	sts	0x02AE, r24
										percent = (capacidade/cap)*100; // percentagem = (capacidade resultante do teste / capacidade inserida) * 100
    12bc:	60 91 a4 02 	lds	r22, 0x02A4
    12c0:	70 91 a5 02 	lds	r23, 0x02A5
    12c4:	88 27       	eor	r24, r24
    12c6:	77 fd       	sbrc	r23, 7
    12c8:	80 95       	com	r24
    12ca:	98 2f       	mov	r25, r24
    12cc:	0e 94 2e 0e 	call	0x1c5c	; 0x1c5c <__floatsisf>
    12d0:	9b 01       	movw	r18, r22
    12d2:	ac 01       	movw	r20, r24
    12d4:	60 91 bc 02 	lds	r22, 0x02BC
    12d8:	70 91 bd 02 	lds	r23, 0x02BD
    12dc:	80 91 be 02 	lds	r24, 0x02BE
    12e0:	90 91 bf 02 	lds	r25, 0x02BF
    12e4:	0e 94 93 0d 	call	0x1b26	; 0x1b26 <__divsf3>
    12e8:	20 e0       	ldi	r18, 0x00	; 0
    12ea:	30 e0       	ldi	r19, 0x00	; 0
    12ec:	48 ec       	ldi	r20, 0xC8	; 200
    12ee:	52 e4       	ldi	r21, 0x42	; 66
    12f0:	0e 94 61 0f 	call	0x1ec2	; 0x1ec2 <__mulsf3>
    12f4:	0e 94 fb 0d 	call	0x1bf6	; 0x1bf6 <__fixsfsi>
    12f8:	dc 01       	movw	r26, r24
    12fa:	cb 01       	movw	r24, r22
    12fc:	90 93 a3 02 	sts	0x02A3, r25
    1300:	80 93 a2 02 	sts	0x02A2, r24
										R_int = ((((Voc - Vload)))/Vload)*1000; // Calcula resistência interna
    1304:	c0 90 b0 02 	lds	r12, 0x02B0
    1308:	d0 90 b1 02 	lds	r13, 0x02B1
    130c:	e0 90 b2 02 	lds	r14, 0x02B2
    1310:	f0 90 b3 02 	lds	r15, 0x02B3
    1314:	60 91 ab 03 	lds	r22, 0x03AB
    1318:	70 91 ac 03 	lds	r23, 0x03AC
    131c:	80 91 ad 03 	lds	r24, 0x03AD
    1320:	90 91 ae 03 	lds	r25, 0x03AE
    1324:	a7 01       	movw	r20, r14
    1326:	96 01       	movw	r18, r12
    1328:	0e 94 2a 0d 	call	0x1a54	; 0x1a54 <__subsf3>
    132c:	a7 01       	movw	r20, r14
    132e:	96 01       	movw	r18, r12
    1330:	0e 94 93 0d 	call	0x1b26	; 0x1b26 <__divsf3>
    1334:	20 e0       	ldi	r18, 0x00	; 0
    1336:	30 e0       	ldi	r19, 0x00	; 0
    1338:	4a e7       	ldi	r20, 0x7A	; 122
    133a:	54 e4       	ldi	r21, 0x44	; 68
    133c:	0e 94 61 0f 	call	0x1ec2	; 0x1ec2 <__mulsf3>
    1340:	26 2f       	mov	r18, r22
    1342:	37 2f       	mov	r19, r23
    1344:	f8 2f       	mov	r31, r24
    1346:	e9 2f       	mov	r30, r25
    1348:	46 2f       	mov	r20, r22
    134a:	57 2f       	mov	r21, r23
    134c:	68 2f       	mov	r22, r24
    134e:	79 2f       	mov	r23, r25
    1350:	40 93 55 03 	sts	0x0355, r20
    1354:	50 93 56 03 	sts	0x0356, r21
    1358:	60 93 57 03 	sts	0x0357, r22
    135c:	70 93 58 03 	sts	0x0358, r23
										dtostrf(R_int,3,0,buffer_rint);
    1360:	82 2f       	mov	r24, r18
    1362:	93 2f       	mov	r25, r19
    1364:	af 2f       	mov	r26, r31
    1366:	be 2f       	mov	r27, r30
    1368:	bc 01       	movw	r22, r24
    136a:	cd 01       	movw	r24, r26
    136c:	43 e0       	ldi	r20, 0x03	; 3
    136e:	20 e0       	ldi	r18, 0x00	; 0
    1370:	85 01       	movw	r16, r10
    1372:	0e 94 5b 10 	call	0x20b6	; 0x20b6 <dtostrf>
	    								lcd_gotoxy(1, 0);
    1376:	81 e0       	ldi	r24, 0x01	; 1
    1378:	60 e0       	ldi	r22, 0x00	; 0
    137a:	0e 94 07 0c 	call	0x180e	; 0x180e <lcd_gotoxy>
	   									lcd_puts("TESTE COMPLETO");
    137e:	c3 01       	movw	r24, r6
    1380:	0e 94 32 0c 	call	0x1864	; 0x1864 <lcd_puts>
										lcd_gotoxy(0, 1);
    1384:	80 e0       	ldi	r24, 0x00	; 0
    1386:	61 e0       	ldi	r22, 0x01	; 1
    1388:	0e 94 07 0c 	call	0x180e	; 0x180e <lcd_gotoxy>
									    dtostrf(capacidade,4,0,buffer_capacidade);
    138c:	60 91 bc 02 	lds	r22, 0x02BC
    1390:	70 91 bd 02 	lds	r23, 0x02BD
    1394:	80 91 be 02 	lds	r24, 0x02BE
    1398:	90 91 bf 02 	lds	r25, 0x02BF
    139c:	44 e0       	ldi	r20, 0x04	; 4
    139e:	20 e0       	ldi	r18, 0x00	; 0
    13a0:	84 01       	movw	r16, r8
    13a2:	0e 94 5b 10 	call	0x20b6	; 0x20b6 <dtostrf>
	 									lcd_puts(buffer_capacidade);
    13a6:	c4 01       	movw	r24, r8
    13a8:	0e 94 32 0c 	call	0x1864	; 0x1864 <lcd_puts>
									    lcd_gotoxy(5,1);
    13ac:	85 e0       	ldi	r24, 0x05	; 5
    13ae:	61 e0       	ldi	r22, 0x01	; 1
    13b0:	0e 94 07 0c 	call	0x180e	; 0x180e <lcd_gotoxy>
									    lcd_puts("mAh");
    13b4:	8c eb       	ldi	r24, 0xBC	; 188
    13b6:	91 e0       	ldi	r25, 0x01	; 1
    13b8:	0e 94 32 0c 	call	0x1864	; 0x1864 <lcd_puts>
									    lcd_gotoxy(11,1);
    13bc:	8b e0       	ldi	r24, 0x0B	; 11
    13be:	61 e0       	ldi	r22, 0x01	; 1
    13c0:	0e 94 07 0c 	call	0x180e	; 0x180e <lcd_gotoxy>
									    dtostrf(percent,2,0,buffer);
    13c4:	60 91 a2 02 	lds	r22, 0x02A2
    13c8:	70 91 a3 02 	lds	r23, 0x02A3
    13cc:	88 27       	eor	r24, r24
    13ce:	77 fd       	sbrc	r23, 7
    13d0:	80 95       	com	r24
    13d2:	98 2f       	mov	r25, r24
    13d4:	0e 94 2e 0e 	call	0x1c5c	; 0x1c5c <__floatsisf>
    13d8:	0f 2e       	mov	r0, r31
    13da:	fb e6       	ldi	r31, 0x6B	; 107
    13dc:	ef 2e       	mov	r14, r31
    13de:	f3 e0       	ldi	r31, 0x03	; 3
    13e0:	ff 2e       	mov	r15, r31
    13e2:	f0 2d       	mov	r31, r0
    13e4:	42 e0       	ldi	r20, 0x02	; 2
    13e6:	20 e0       	ldi	r18, 0x00	; 0
    13e8:	87 01       	movw	r16, r14
    13ea:	0e 94 5b 10 	call	0x20b6	; 0x20b6 <dtostrf>
									    lcd_puts(buffer);
    13ee:	c7 01       	movw	r24, r14
    13f0:	0e 94 32 0c 	call	0x1864	; 0x1864 <lcd_puts>
										lcd_gotoxy(14,1);
    13f4:	8e e0       	ldi	r24, 0x0E	; 14
    13f6:	61 e0       	ldi	r22, 0x01	; 1
    13f8:	0e 94 07 0c 	call	0x180e	; 0x180e <lcd_gotoxy>
										lcd_puts("%");
    13fc:	8c e4       	ldi	r24, 0x4C	; 76
    13fe:	92 e0       	ldi	r25, 0x02	; 2
    1400:	0e 94 32 0c 	call	0x1864	; 0x1864 <lcd_puts>
										//////////////////Comunicação pela porta serie ///////////////////
										sprintf(buffer_tx,"------TESTE COMPLETO------\r\n");
    1404:	e9 81       	ldd	r30, Y+1	; 0x01
    1406:	fa 81       	ldd	r31, Y+2	; 0x02
    1408:	ae e4       	ldi	r26, 0x4E	; 78
    140a:	b2 e0       	ldi	r27, 0x02	; 2
    140c:	8d e1       	ldi	r24, 0x1D	; 29
    140e:	0d 90       	ld	r0, X+
    1410:	01 92       	st	Z+, r0
    1412:	81 50       	subi	r24, 0x01	; 1
    1414:	e1 f7       	brne	.-8      	; 0x140e <__stack+0xb0f>
										TX_buffer();
    1416:	0e 94 78 01 	call	0x2f0	; 0x2f0 <TX_buffer>
										sprintf(buffer_tx,"%s mAh | %d min | %s mOhm | %s 'C\r\n",buffer_capacidade, minutos, buffer_rint, buffer_temp);
    141a:	ad b7       	in	r26, 0x3d	; 61
    141c:	be b7       	in	r27, 0x3e	; 62
    141e:	1c 97       	sbiw	r26, 0x0c	; 12
    1420:	0f b6       	in	r0, 0x3f	; 63
    1422:	f8 94       	cli
    1424:	be bf       	out	0x3e, r27	; 62
    1426:	0f be       	out	0x3f, r0	; 63
    1428:	ad bf       	out	0x3d, r26	; 61
    142a:	ed b7       	in	r30, 0x3d	; 61
    142c:	fe b7       	in	r31, 0x3e	; 62
    142e:	31 96       	adiw	r30, 0x01	; 1
    1430:	87 e0       	ldi	r24, 0x07	; 7
    1432:	93 e0       	ldi	r25, 0x03	; 3
    1434:	12 96       	adiw	r26, 0x02	; 2
    1436:	9c 93       	st	X, r25
    1438:	8e 93       	st	-X, r24
    143a:	11 97       	sbiw	r26, 0x01	; 1
    143c:	8b e6       	ldi	r24, 0x6B	; 107
    143e:	92 e0       	ldi	r25, 0x02	; 2
    1440:	93 83       	std	Z+3, r25	; 0x03
    1442:	82 83       	std	Z+2, r24	; 0x02
    1444:	95 82       	std	Z+5, r9	; 0x05
    1446:	84 82       	std	Z+4, r8	; 0x04
    1448:	80 91 b1 03 	lds	r24, 0x03B1
    144c:	90 91 b2 03 	lds	r25, 0x03B2
    1450:	97 83       	std	Z+7, r25	; 0x07
    1452:	86 83       	std	Z+6, r24	; 0x06
    1454:	b1 86       	std	Z+9, r11	; 0x09
    1456:	a0 86       	std	Z+8, r10	; 0x08
    1458:	89 e5       	ldi	r24, 0x59	; 89
    145a:	93 e0       	ldi	r25, 0x03	; 3
    145c:	93 87       	std	Z+11, r25	; 0x0b
    145e:	82 87       	std	Z+10, r24	; 0x0a
    1460:	0e 94 7d 10 	call	0x20fa	; 0x20fa <sprintf>
										TX_buffer();
    1464:	ad b7       	in	r26, 0x3d	; 61
    1466:	be b7       	in	r27, 0x3e	; 62
    1468:	1c 96       	adiw	r26, 0x0c	; 12
    146a:	0f b6       	in	r0, 0x3f	; 63
    146c:	f8 94       	cli
    146e:	be bf       	out	0x3e, r27	; 62
    1470:	0f be       	out	0x3f, r0	; 63
    1472:	ad bf       	out	0x3d, r26	; 61
    1474:	0e 94 78 01 	call	0x2f0	; 0x2f0 <TX_buffer>
											{
											_delay_ms(1600);
											if(!(PINB&(1<<0))){ 
											_delay_ms(1600);
											}
											acum = acum % 2;
    1478:	ee 24       	eor	r14, r14
    147a:	ff 24       	eor	r15, r15
    147c:	68 94       	set
    147e:	e1 f8       	bld	r14, 1
													lcd_puts("TESTE COMPLETO");
													lcd_gotoxy(0, 1);
													dtostrf(capacidade,4,0,buffer);
													lcd_puts(buffer);
													lcd_gotoxy(5,1);
													lcd_puts("mAh");
    1480:	0f 2e       	mov	r0, r31
    1482:	fc eb       	ldi	r31, 0xBC	; 188
    1484:	cf 2e       	mov	r12, r31
    1486:	f1 e0       	ldi	r31, 0x01	; 1
    1488:	df 2e       	mov	r13, r31
    148a:	f0 2d       	mov	r31, r0
													lcd_gotoxy(9,1);
													dtostrf(percent,4,0,buffer);
													lcd_puts(buffer);
													lcd_gotoxy(14,1);
													lcd_puts("%");
    148c:	0f 2e       	mov	r0, r31
    148e:	fc e4       	ldi	r31, 0x4C	; 76
    1490:	4f 2e       	mov	r4, r31
    1492:	f2 e0       	ldi	r31, 0x02	; 2
    1494:	5f 2e       	mov	r5, r31
    1496:	f0 2d       	mov	r31, r0
										sprintf(buffer_tx,"------TESTE COMPLETO------\r\n");
										TX_buffer();
										sprintf(buffer_tx,"%s mAh | %d min | %s mOhm | %s 'C\r\n",buffer_capacidade, minutos, buffer_rint, buffer_temp);
										TX_buffer();
										/////////////////////////////////////////////////////////////////
										while (teste == 0 && inicio == 0) { ///////////// PERCORRE OS 2 ECRAS /////////////////
    1498:	18 c1       	rjmp	.+560    	; 0x16ca <__stack+0xdcb>
											if ((PINB&(1<<0))) ///////////// PRIMEIRO SWITCH //////////////
    149a:	18 9b       	sbis	0x03, 0	; 3
    149c:	eb c0       	rjmp	.+470    	; 0x1674 <__stack+0xd75>
    149e:	8f ef       	ldi	r24, 0xFF	; 255
    14a0:	91 ee       	ldi	r25, 0xE1	; 225
    14a2:	a4 e0       	ldi	r26, 0x04	; 4
    14a4:	81 50       	subi	r24, 0x01	; 1
    14a6:	90 40       	sbci	r25, 0x00	; 0
    14a8:	a0 40       	sbci	r26, 0x00	; 0
    14aa:	e1 f7       	brne	.-8      	; 0x14a4 <__stack+0xba5>
    14ac:	00 c0       	rjmp	.+0      	; 0x14ae <__stack+0xbaf>
    14ae:	00 00       	nop
											{
											_delay_ms(1600);
											if(!(PINB&(1<<0))){ 
    14b0:	18 99       	sbic	0x03, 0	; 3
    14b2:	09 c0       	rjmp	.+18     	; 0x14c6 <__stack+0xbc7>
    14b4:	8f ef       	ldi	r24, 0xFF	; 255
    14b6:	91 ee       	ldi	r25, 0xE1	; 225
    14b8:	a4 e0       	ldi	r26, 0x04	; 4
    14ba:	81 50       	subi	r24, 0x01	; 1
    14bc:	90 40       	sbci	r25, 0x00	; 0
    14be:	a0 40       	sbci	r26, 0x00	; 0
    14c0:	e1 f7       	brne	.-8      	; 0x14ba <__stack+0xbbb>
    14c2:	00 c0       	rjmp	.+0      	; 0x14c4 <__stack+0xbc5>
    14c4:	00 00       	nop
											_delay_ms(1600);
											}
											acum = acum % 2;
    14c6:	80 91 ae 02 	lds	r24, 0x02AE
    14ca:	90 91 af 02 	lds	r25, 0x02AF
    14ce:	b7 01       	movw	r22, r14
    14d0:	0e 94 f7 0f 	call	0x1fee	; 0x1fee <__divmodhi4>
    14d4:	28 2f       	mov	r18, r24
    14d6:	39 2f       	mov	r19, r25
    14d8:	80 93 ae 02 	sts	0x02AE, r24
    14dc:	90 93 af 02 	sts	0x02AF, r25
											switch (acum) {
    14e0:	21 15       	cp	r18, r1
    14e2:	31 05       	cpc	r19, r1
    14e4:	29 f0       	breq	.+10     	; 0x14f0 <__stack+0xbf1>
    14e6:	21 30       	cpi	r18, 0x01	; 1
    14e8:	31 05       	cpc	r19, r1
    14ea:	09 f0       	breq	.+2      	; 0x14ee <__stack+0xbef>
    14ec:	c3 c0       	rjmp	.+390    	; 0x1674 <__stack+0xd75>
    14ee:	54 c0       	rjmp	.+168    	; 0x1598 <__stack+0xc99>
													case 0:
													lcd_clrscr();
    14f0:	0e 94 15 0c 	call	0x182a	; 0x182a <lcd_clrscr>
													lcd_gotoxy(1, 0);  
    14f4:	81 e0       	ldi	r24, 0x01	; 1
    14f6:	60 e0       	ldi	r22, 0x00	; 0
    14f8:	0e 94 07 0c 	call	0x180e	; 0x180e <lcd_gotoxy>
													lcd_puts("TESTE COMPLETO");
    14fc:	c3 01       	movw	r24, r6
    14fe:	0e 94 32 0c 	call	0x1864	; 0x1864 <lcd_puts>
													lcd_gotoxy(0, 1);
    1502:	80 e0       	ldi	r24, 0x00	; 0
    1504:	61 e0       	ldi	r22, 0x01	; 1
    1506:	0e 94 07 0c 	call	0x180e	; 0x180e <lcd_gotoxy>
													dtostrf(capacidade,4,0,buffer);
    150a:	60 91 bc 02 	lds	r22, 0x02BC
    150e:	70 91 bd 02 	lds	r23, 0x02BD
    1512:	80 91 be 02 	lds	r24, 0x02BE
    1516:	90 91 bf 02 	lds	r25, 0x02BF
    151a:	44 e0       	ldi	r20, 0x04	; 4
    151c:	20 e0       	ldi	r18, 0x00	; 0
    151e:	0b e6       	ldi	r16, 0x6B	; 107
    1520:	13 e0       	ldi	r17, 0x03	; 3
    1522:	0e 94 5b 10 	call	0x20b6	; 0x20b6 <dtostrf>
													lcd_puts(buffer);
    1526:	c8 01       	movw	r24, r16
    1528:	0e 94 32 0c 	call	0x1864	; 0x1864 <lcd_puts>
													lcd_gotoxy(5,1);
    152c:	85 e0       	ldi	r24, 0x05	; 5
    152e:	61 e0       	ldi	r22, 0x01	; 1
    1530:	0e 94 07 0c 	call	0x180e	; 0x180e <lcd_gotoxy>
													lcd_puts("mAh");
    1534:	c6 01       	movw	r24, r12
    1536:	0e 94 32 0c 	call	0x1864	; 0x1864 <lcd_puts>
													lcd_gotoxy(9,1);
    153a:	89 e0       	ldi	r24, 0x09	; 9
    153c:	61 e0       	ldi	r22, 0x01	; 1
    153e:	0e 94 07 0c 	call	0x180e	; 0x180e <lcd_gotoxy>
													dtostrf(percent,4,0,buffer);
    1542:	60 91 a2 02 	lds	r22, 0x02A2
    1546:	70 91 a3 02 	lds	r23, 0x02A3
    154a:	88 27       	eor	r24, r24
    154c:	77 fd       	sbrc	r23, 7
    154e:	80 95       	com	r24
    1550:	98 2f       	mov	r25, r24
    1552:	0e 94 2e 0e 	call	0x1c5c	; 0x1c5c <__floatsisf>
    1556:	44 e0       	ldi	r20, 0x04	; 4
    1558:	20 e0       	ldi	r18, 0x00	; 0
    155a:	0e 94 5b 10 	call	0x20b6	; 0x20b6 <dtostrf>
													lcd_puts(buffer);
    155e:	c8 01       	movw	r24, r16
    1560:	0e 94 32 0c 	call	0x1864	; 0x1864 <lcd_puts>
													lcd_gotoxy(14,1);
    1564:	8e e0       	ldi	r24, 0x0E	; 14
    1566:	61 e0       	ldi	r22, 0x01	; 1
    1568:	0e 94 07 0c 	call	0x180e	; 0x180e <lcd_gotoxy>
													lcd_puts("%");
    156c:	c2 01       	movw	r24, r4
    156e:	0e 94 32 0c 	call	0x1864	; 0x1864 <lcd_puts>
													acum++;
    1572:	80 91 ae 02 	lds	r24, 0x02AE
    1576:	90 91 af 02 	lds	r25, 0x02AF
    157a:	01 96       	adiw	r24, 0x01	; 1
    157c:	90 93 af 02 	sts	0x02AF, r25
    1580:	80 93 ae 02 	sts	0x02AE, r24
    1584:	8f ef       	ldi	r24, 0xFF	; 255
    1586:	95 ea       	ldi	r25, 0xA5	; 165
    1588:	ae e0       	ldi	r26, 0x0E	; 14
    158a:	81 50       	subi	r24, 0x01	; 1
    158c:	90 40       	sbci	r25, 0x00	; 0
    158e:	a0 40       	sbci	r26, 0x00	; 0
    1590:	e1 f7       	brne	.-8      	; 0x158a <__stack+0xc8b>
    1592:	00 c0       	rjmp	.+0      	; 0x1594 <__stack+0xc95>
    1594:	00 00       	nop
    1596:	6e c0       	rjmp	.+220    	; 0x1674 <__stack+0xd75>
													_delay_ms(4800);
													break;

													case 1:
													lcd_clrscr();
    1598:	0e 94 15 0c 	call	0x182a	; 0x182a <lcd_clrscr>
													lcd_home(); 
    159c:	0e 94 19 0c 	call	0x1832	; 0x1832 <lcd_home>
													dtostrf(R_int,4,0,buffer_rint);
    15a0:	60 91 55 03 	lds	r22, 0x0355
    15a4:	70 91 56 03 	lds	r23, 0x0356
    15a8:	80 91 57 03 	lds	r24, 0x0357
    15ac:	90 91 58 03 	lds	r25, 0x0358
    15b0:	44 e0       	ldi	r20, 0x04	; 4
    15b2:	20 e0       	ldi	r18, 0x00	; 0
    15b4:	85 01       	movw	r16, r10
    15b6:	0e 94 5b 10 	call	0x20b6	; 0x20b6 <dtostrf>
													lcd_puts(buffer_rint);
    15ba:	c5 01       	movw	r24, r10
    15bc:	0e 94 32 0c 	call	0x1864	; 0x1864 <lcd_puts>
													lcd_gotoxy(5,0);
    15c0:	85 e0       	ldi	r24, 0x05	; 5
    15c2:	60 e0       	ldi	r22, 0x00	; 0
    15c4:	0e 94 07 0c 	call	0x180e	; 0x180e <lcd_gotoxy>
													lcd_puts("mOhm");   // Mostra Resistencia Interna
    15c8:	c1 01       	movw	r24, r2
    15ca:	0e 94 32 0c 	call	0x1864	; 0x1864 <lcd_puts>
													lcd_gotoxy(1, 1);
    15ce:	81 e0       	ldi	r24, 0x01	; 1
    15d0:	61 e0       	ldi	r22, 0x01	; 1
    15d2:	0e 94 07 0c 	call	0x180e	; 0x180e <lcd_gotoxy>
													dtostrf(minutos,3,0,buffer);
    15d6:	60 91 b1 03 	lds	r22, 0x03B1
    15da:	70 91 b2 03 	lds	r23, 0x03B2
    15de:	88 27       	eor	r24, r24
    15e0:	77 fd       	sbrc	r23, 7
    15e2:	80 95       	com	r24
    15e4:	98 2f       	mov	r25, r24
    15e6:	0e 94 2e 0e 	call	0x1c5c	; 0x1c5c <__floatsisf>
    15ea:	43 e0       	ldi	r20, 0x03	; 3
    15ec:	20 e0       	ldi	r18, 0x00	; 0
    15ee:	0b e6       	ldi	r16, 0x6B	; 107
    15f0:	13 e0       	ldi	r17, 0x03	; 3
    15f2:	0e 94 5b 10 	call	0x20b6	; 0x20b6 <dtostrf>
													lcd_puts(buffer);
    15f6:	c8 01       	movw	r24, r16
    15f8:	0e 94 32 0c 	call	0x1864	; 0x1864 <lcd_puts>
													lcd_gotoxy(5,1);
    15fc:	85 e0       	ldi	r24, 0x05	; 5
    15fe:	61 e0       	ldi	r22, 0x01	; 1
    1600:	0e 94 07 0c 	call	0x180e	; 0x180e <lcd_gotoxy>
													lcd_puts("min."); // Mostra minutos
    1604:	84 e9       	ldi	r24, 0x94	; 148
    1606:	92 e0       	ldi	r25, 0x02	; 2
    1608:	0e 94 32 0c 	call	0x1864	; 0x1864 <lcd_puts>
													dtostrf(temp_a2,3,0,buffer);
    160c:	60 91 4f 03 	lds	r22, 0x034F
    1610:	70 91 50 03 	lds	r23, 0x0350
    1614:	80 91 51 03 	lds	r24, 0x0351
    1618:	90 91 52 03 	lds	r25, 0x0352
    161c:	43 e0       	ldi	r20, 0x03	; 3
    161e:	20 e0       	ldi	r18, 0x00	; 0
    1620:	0e 94 5b 10 	call	0x20b6	; 0x20b6 <dtostrf>
													lcd_gotoxy(11, 1);
    1624:	8b e0       	ldi	r24, 0x0B	; 11
    1626:	61 e0       	ldi	r22, 0x01	; 1
    1628:	0e 94 07 0c 	call	0x180e	; 0x180e <lcd_gotoxy>
													lcd_puts(buffer); // Mostra temperatura
    162c:	c8 01       	movw	r24, r16
    162e:	0e 94 32 0c 	call	0x1864	; 0x1864 <lcd_puts>
													lcd_gotoxy(14,1);
    1632:	8e e0       	ldi	r24, 0x0E	; 14
    1634:	61 e0       	ldi	r22, 0x01	; 1
    1636:	0e 94 07 0c 	call	0x180e	; 0x180e <lcd_gotoxy>
													lcd_putc(223);
    163a:	8f ed       	ldi	r24, 0xDF	; 223
    163c:	0e 94 1d 0c 	call	0x183a	; 0x183a <lcd_putc>
													lcd_gotoxy(15,1);
    1640:	8f e0       	ldi	r24, 0x0F	; 15
    1642:	61 e0       	ldi	r22, 0x01	; 1
    1644:	0e 94 07 0c 	call	0x180e	; 0x180e <lcd_gotoxy>
													lcd_puts("C");
    1648:	84 ef       	ldi	r24, 0xF4	; 244
    164a:	91 e0       	ldi	r25, 0x01	; 1
    164c:	0e 94 32 0c 	call	0x1864	; 0x1864 <lcd_puts>
													acum++;
    1650:	80 91 ae 02 	lds	r24, 0x02AE
    1654:	90 91 af 02 	lds	r25, 0x02AF
    1658:	01 96       	adiw	r24, 0x01	; 1
    165a:	90 93 af 02 	sts	0x02AF, r25
    165e:	80 93 ae 02 	sts	0x02AE, r24
    1662:	8f ef       	ldi	r24, 0xFF	; 255
    1664:	95 ea       	ldi	r25, 0xA5	; 165
    1666:	ae e0       	ldi	r26, 0x0E	; 14
    1668:	81 50       	subi	r24, 0x01	; 1
    166a:	90 40       	sbci	r25, 0x00	; 0
    166c:	a0 40       	sbci	r26, 0x00	; 0
    166e:	e1 f7       	brne	.-8      	; 0x1668 <__stack+0xd69>
    1670:	00 c0       	rjmp	.+0      	; 0x1672 <__stack+0xd73>
    1672:	00 00       	nop
													_delay_ms(4800);
													break;
												 }
								}
								
							if ((PINB & (1<<2)) && (V_cutoff != 0) ) { //////////////// SEGUNDO SWITCH /////////
    1674:	1a 9b       	sbis	0x03, 2	; 3
    1676:	29 c0       	rjmp	.+82     	; 0x16ca <__stack+0xdcb>
    1678:	60 91 b4 02 	lds	r22, 0x02B4
    167c:	70 91 b5 02 	lds	r23, 0x02B5
    1680:	80 91 b6 02 	lds	r24, 0x02B6
    1684:	90 91 b7 02 	lds	r25, 0x02B7
    1688:	20 e0       	ldi	r18, 0x00	; 0
    168a:	30 e0       	ldi	r19, 0x00	; 0
    168c:	a9 01       	movw	r20, r18
    168e:	0e 94 8f 0d 	call	0x1b1e	; 0x1b1e <__cmpsf2>
    1692:	88 23       	and	r24, r24
    1694:	d1 f0       	breq	.+52     	; 0x16ca <__stack+0xdcb>
    1696:	8f ef       	ldi	r24, 0xFF	; 255
    1698:	91 ee       	ldi	r25, 0xE1	; 225
    169a:	a4 e0       	ldi	r26, 0x04	; 4
    169c:	81 50       	subi	r24, 0x01	; 1
    169e:	90 40       	sbci	r25, 0x00	; 0
    16a0:	a0 40       	sbci	r26, 0x00	; 0
    16a2:	e1 f7       	brne	.-8      	; 0x169c <__stack+0xd9d>
    16a4:	00 c0       	rjmp	.+0      	; 0x16a6 <__stack+0xda7>
    16a6:	00 00       	nop
							_delay_ms(1600);
							if(!(PINB&(1<<2))){
    16a8:	1a 99       	sbic	0x03, 2	; 3
    16aa:	09 c0       	rjmp	.+18     	; 0x16be <__stack+0xdbf>
    16ac:	8f ef       	ldi	r24, 0xFF	; 255
    16ae:	91 ee       	ldi	r25, 0xE1	; 225
    16b0:	a4 e0       	ldi	r26, 0x04	; 4
    16b2:	81 50       	subi	r24, 0x01	; 1
    16b4:	90 40       	sbci	r25, 0x00	; 0
    16b6:	a0 40       	sbci	r26, 0x00	; 0
    16b8:	e1 f7       	brne	.-8      	; 0x16b2 <__stack+0xdb3>
    16ba:	00 c0       	rjmp	.+0      	; 0x16bc <__stack+0xdbd>
    16bc:	00 00       	nop
										_delay_ms(1600);
										}
										lcd_clrscr();
    16be:	0e 94 15 0c 	call	0x182a	; 0x182a <lcd_clrscr>
										apagar_variaveis();
    16c2:	0e 94 98 01 	call	0x330	; 0x330 <apagar_variaveis>
										main();
    16c6:	0e 94 2b 04 	call	0x856	; 0x856 <main>
										sprintf(buffer_tx,"------TESTE COMPLETO------\r\n");
										TX_buffer();
										sprintf(buffer_tx,"%s mAh | %d min | %s mOhm | %s 'C\r\n",buffer_capacidade, minutos, buffer_rint, buffer_temp);
										TX_buffer();
										/////////////////////////////////////////////////////////////////
										while (teste == 0 && inicio == 0) { ///////////// PERCORRE OS 2 ECRAS /////////////////
    16ca:	80 91 83 03 	lds	r24, 0x0383
    16ce:	90 91 84 03 	lds	r25, 0x0384
    16d2:	00 97       	sbiw	r24, 0x00	; 0
    16d4:	09 f0       	breq	.+2      	; 0x16d8 <__stack+0xdd9>
    16d6:	aa cd       	rjmp	.-1196   	; 0x122c <__stack+0x92d>
    16d8:	80 91 d1 02 	lds	r24, 0x02D1
    16dc:	90 91 d2 02 	lds	r25, 0x02D2
    16e0:	00 97       	sbiw	r24, 0x00	; 0
    16e2:	09 f4       	brne	.+2      	; 0x16e6 <__stack+0xde7>
    16e4:	da ce       	rjmp	.-588    	; 0x149a <__stack+0xb9b>
    16e6:	a2 cd       	rjmp	.-1212   	; 0x122c <__stack+0x92d>
			millisPassed=runMillis-previousMillis;
			capacidade = (capacidade + (current) * (millisPassed / 3600000.0)); // mAh = mAh + mAmperes * Horas
			previousMillis=runMillis;
			minutos= temporizadorms / 60000; // Calcula min
			
			dtostrf(capacidade,4,0,buffer_capacidade);
    16e8:	0f 2e       	mov	r0, r31
    16ea:	f1 ef       	ldi	r31, 0xF1	; 241
    16ec:	6f 2e       	mov	r6, r31
    16ee:	f2 e0       	ldi	r31, 0x02	; 2
    16f0:	7f 2e       	mov	r7, r31
    16f2:	f0 2d       	mov	r31, r0
			lcd_puts(buffer_capacidade);
			lcd_gotoxy(5,1);
			lcd_puts("mAh"); // Mostra acumulador de capacidade ate o teste acabar
			///////////// TEMPERATURA ////////////
			lcd_gotoxy(10, 1);
			dtostrf(temp_a2,3,0,buffer_temp);
    16f4:	0f 2e       	mov	r0, r31
    16f6:	f9 e5       	ldi	r31, 0x59	; 89
    16f8:	4f 2e       	mov	r4, r31
    16fa:	f3 e0       	ldi	r31, 0x03	; 3
    16fc:	5f 2e       	mov	r5, r31
    16fe:	f0 2d       	mov	r31, r0
		}

		//////////////////////////////////// FIM DO INICIO ////////////////////////////////////
		//////////////////////////////////// COMEÇA TESTE //////////////////////////////////////
		
      while ((teste == 1) && (inicio == 0)) {      		
    1700:	80 91 83 03 	lds	r24, 0x0383
    1704:	90 91 84 03 	lds	r25, 0x0384
    1708:	81 30       	cpi	r24, 0x01	; 1
    170a:	91 05       	cpc	r25, r1
    170c:	09 f0       	breq	.+2      	; 0x1710 <__stack+0xe11>
    170e:	69 cb       	rjmp	.-2350   	; 0xde2 <__stack+0x4e3>
    1710:	80 91 d1 02 	lds	r24, 0x02D1
    1714:	90 91 d2 02 	lds	r25, 0x02D2
    1718:	00 97       	sbiw	r24, 0x00	; 0
    171a:	09 f4       	brne	.+2      	; 0x171e <__stack+0xe1f>
    171c:	85 cb       	rjmp	.-2294   	; 0xe28 <__stack+0x529>
    171e:	61 cb       	rjmp	.-2366   	; 0xde2 <__stack+0x4e3>

00001720 <toggle_e>:

#if LCD_IO_MODE
/* toggle Enable Pin to initiate write */
static void toggle_e(void)
{
    lcd_e_high();
    1720:	2c 9a       	sbi	0x05, 4	; 5
	#else
		//round up by default
		__ticks_dc = (uint32_t)(ceil(fabs(__tmp)));
	#endif

	__builtin_avr_delay_cycles(__ticks_dc);
    1722:	00 00       	nop
    lcd_e_delay();
    lcd_e_low();
    1724:	2c 98       	cbi	0x05, 4	; 5
}
    1726:	08 95       	ret

00001728 <lcd_write>:
                 0: write instruction
Returns:  none
*************************************************************************/
#if LCD_IO_MODE
static void lcd_write(uint8_t data,uint8_t rs) 
{
    1728:	cf 93       	push	r28
    unsigned char dataBits ;


    if (rs) {        /* write data        (RS=1, RW=0) */
    172a:	66 23       	and	r22, r22
    172c:	11 f0       	breq	.+4      	; 0x1732 <lcd_write+0xa>
       lcd_rs_high();
    172e:	29 9a       	sbi	0x05, 1	; 5
    1730:	01 c0       	rjmp	.+2      	; 0x1734 <lcd_write+0xc>
    } else {         /* write instruction (RS=0, RW=0) */
       lcd_rs_low();
    1732:	29 98       	cbi	0x05, 1	; 5
    }
    lcd_rw_low();    /* RW=0  write mode      */
    1734:	5c 98       	cbi	0x0b, 4	; 11
        LCD_DATA0_PORT = dataBits | 0x0F;
    }
    else
    {
        /* configure data pins as output */
        DDR(LCD_DATA0_PORT) |= _BV(LCD_DATA0_PIN);
    1736:	50 9a       	sbi	0x0a, 0	; 10
        DDR(LCD_DATA1_PORT) |= _BV(LCD_DATA1_PIN);
    1738:	57 9a       	sbi	0x0a, 7	; 10
        DDR(LCD_DATA2_PORT) |= _BV(LCD_DATA2_PIN);
    173a:	52 9a       	sbi	0x0a, 2	; 10
        DDR(LCD_DATA3_PORT) |= _BV(LCD_DATA3_PIN);
    173c:	53 9a       	sbi	0x0a, 3	; 10
        
        /* output high nibble first */
        LCD_DATA3_PORT &= ~_BV(LCD_DATA3_PIN);
    173e:	5b 98       	cbi	0x0b, 3	; 11
        LCD_DATA2_PORT &= ~_BV(LCD_DATA2_PIN);
    1740:	5a 98       	cbi	0x0b, 2	; 11
        LCD_DATA1_PORT &= ~_BV(LCD_DATA1_PIN);
    1742:	5f 98       	cbi	0x0b, 7	; 11
        LCD_DATA0_PORT &= ~_BV(LCD_DATA0_PIN);
    1744:	58 98       	cbi	0x0b, 0	; 11
    	if(data & 0x80) LCD_DATA3_PORT |= _BV(LCD_DATA3_PIN);
    1746:	88 23       	and	r24, r24
    1748:	0c f4       	brge	.+2      	; 0x174c <lcd_write+0x24>
    174a:	5b 9a       	sbi	0x0b, 3	; 11
    	if(data & 0x40) LCD_DATA2_PORT |= _BV(LCD_DATA2_PIN);
    174c:	c8 2f       	mov	r28, r24
    174e:	86 fd       	sbrc	r24, 6
    1750:	5a 9a       	sbi	0x0b, 2	; 11
    	if(data & 0x20) LCD_DATA1_PORT |= _BV(LCD_DATA1_PIN);
    1752:	c5 fd       	sbrc	r28, 5
    1754:	5f 9a       	sbi	0x0b, 7	; 11
    	if(data & 0x10) LCD_DATA0_PORT |= _BV(LCD_DATA0_PIN);   
    1756:	c4 fd       	sbrc	r28, 4
    1758:	58 9a       	sbi	0x0b, 0	; 11
        lcd_e_toggle();
    175a:	0e 94 90 0b 	call	0x1720	; 0x1720 <toggle_e>
        
        /* output low nibble */
        LCD_DATA3_PORT &= ~_BV(LCD_DATA3_PIN);
    175e:	5b 98       	cbi	0x0b, 3	; 11
        LCD_DATA2_PORT &= ~_BV(LCD_DATA2_PIN);
    1760:	5a 98       	cbi	0x0b, 2	; 11
        LCD_DATA1_PORT &= ~_BV(LCD_DATA1_PIN);
    1762:	5f 98       	cbi	0x0b, 7	; 11
        LCD_DATA0_PORT &= ~_BV(LCD_DATA0_PIN);
    1764:	58 98       	cbi	0x0b, 0	; 11
    	if(data & 0x08) LCD_DATA3_PORT |= _BV(LCD_DATA3_PIN);
    1766:	c3 fd       	sbrc	r28, 3
    1768:	5b 9a       	sbi	0x0b, 3	; 11
    	if(data & 0x04) LCD_DATA2_PORT |= _BV(LCD_DATA2_PIN);
    176a:	c2 fd       	sbrc	r28, 2
    176c:	5a 9a       	sbi	0x0b, 2	; 11
    	if(data & 0x02) LCD_DATA1_PORT |= _BV(LCD_DATA1_PIN);
    176e:	c1 fd       	sbrc	r28, 1
    1770:	5f 9a       	sbi	0x0b, 7	; 11
    	if(data & 0x01) LCD_DATA0_PORT |= _BV(LCD_DATA0_PIN);
    1772:	c0 fd       	sbrc	r28, 0
    1774:	58 9a       	sbi	0x0b, 0	; 11
        lcd_e_toggle();        
    1776:	0e 94 90 0b 	call	0x1720	; 0x1720 <toggle_e>
        
        /* all data pins high (inactive) */
        LCD_DATA0_PORT |= _BV(LCD_DATA0_PIN);
    177a:	58 9a       	sbi	0x0b, 0	; 11
        LCD_DATA1_PORT |= _BV(LCD_DATA1_PIN);
    177c:	5f 9a       	sbi	0x0b, 7	; 11
        LCD_DATA2_PORT |= _BV(LCD_DATA2_PIN);
    177e:	5a 9a       	sbi	0x0b, 2	; 11
        LCD_DATA3_PORT |= _BV(LCD_DATA3_PIN);
    1780:	5b 9a       	sbi	0x0b, 3	; 11
    }
}
    1782:	cf 91       	pop	r28
    1784:	08 95       	ret

00001786 <lcd_read>:
static uint8_t lcd_read(uint8_t rs) 
{
    uint8_t data;
    
    
    if (rs)
    1786:	88 23       	and	r24, r24
    1788:	11 f0       	breq	.+4      	; 0x178e <lcd_read+0x8>
        lcd_rs_high();                       /* RS=1: read data      */
    178a:	29 9a       	sbi	0x05, 1	; 5
    178c:	01 c0       	rjmp	.+2      	; 0x1790 <lcd_read+0xa>
    else
        lcd_rs_low();                        /* RS=0: read busy flag */
    178e:	29 98       	cbi	0x05, 1	; 5
    lcd_rw_high();                           /* RW=1  read mode      */
    1790:	5c 9a       	sbi	0x0b, 4	; 11
        lcd_e_low();
    }
    else
    {
        /* configure data pins as input */
        DDR(LCD_DATA0_PORT) &= ~_BV(LCD_DATA0_PIN);
    1792:	50 98       	cbi	0x0a, 0	; 10
        DDR(LCD_DATA1_PORT) &= ~_BV(LCD_DATA1_PIN);
    1794:	57 98       	cbi	0x0a, 7	; 10
        DDR(LCD_DATA2_PORT) &= ~_BV(LCD_DATA2_PIN);
    1796:	52 98       	cbi	0x0a, 2	; 10
        DDR(LCD_DATA3_PORT) &= ~_BV(LCD_DATA3_PIN);
    1798:	53 98       	cbi	0x0a, 3	; 10
                
        /* read high nibble first */
        lcd_e_high();
    179a:	2c 9a       	sbi	0x05, 4	; 5
    179c:	00 00       	nop
        lcd_e_delay();        
        data = 0;
        if ( PIN(LCD_DATA0_PORT) & _BV(LCD_DATA0_PIN) ) data |= 0x10;
    179e:	48 99       	sbic	0x09, 0	; 9
    17a0:	02 c0       	rjmp	.+4      	; 0x17a6 <lcd_read+0x20>
        DDR(LCD_DATA3_PORT) &= ~_BV(LCD_DATA3_PIN);
                
        /* read high nibble first */
        lcd_e_high();
        lcd_e_delay();        
        data = 0;
    17a2:	80 e0       	ldi	r24, 0x00	; 0
    17a4:	01 c0       	rjmp	.+2      	; 0x17a8 <lcd_read+0x22>
        if ( PIN(LCD_DATA0_PORT) & _BV(LCD_DATA0_PIN) ) data |= 0x10;
    17a6:	80 e1       	ldi	r24, 0x10	; 16
        if ( PIN(LCD_DATA1_PORT) & _BV(LCD_DATA1_PIN) ) data |= 0x20;
    17a8:	4f 99       	sbic	0x09, 7	; 9
    17aa:	80 62       	ori	r24, 0x20	; 32
        if ( PIN(LCD_DATA2_PORT) & _BV(LCD_DATA2_PIN) ) data |= 0x40;
    17ac:	4a 99       	sbic	0x09, 2	; 9
    17ae:	80 64       	ori	r24, 0x40	; 64
        if ( PIN(LCD_DATA3_PORT) & _BV(LCD_DATA3_PIN) ) data |= 0x80;
    17b0:	4b 99       	sbic	0x09, 3	; 9
    17b2:	80 68       	ori	r24, 0x80	; 128
        lcd_e_low();
    17b4:	2c 98       	cbi	0x05, 4	; 5
    17b6:	00 00       	nop

        lcd_e_delay();                       /* Enable 500ns low       */
    
        /* read low nibble */    
        lcd_e_high();
    17b8:	2c 9a       	sbi	0x05, 4	; 5
    17ba:	00 00       	nop
        lcd_e_delay();
        if ( PIN(LCD_DATA0_PORT) & _BV(LCD_DATA0_PIN) ) data |= 0x01;
    17bc:	48 99       	sbic	0x09, 0	; 9
    17be:	81 60       	ori	r24, 0x01	; 1
        if ( PIN(LCD_DATA1_PORT) & _BV(LCD_DATA1_PIN) ) data |= 0x02;
    17c0:	4f 99       	sbic	0x09, 7	; 9
    17c2:	82 60       	ori	r24, 0x02	; 2
        if ( PIN(LCD_DATA2_PORT) & _BV(LCD_DATA2_PIN) ) data |= 0x04;
    17c4:	4a 99       	sbic	0x09, 2	; 9
    17c6:	84 60       	ori	r24, 0x04	; 4
        if ( PIN(LCD_DATA3_PORT) & _BV(LCD_DATA3_PIN) ) data |= 0x08;        
    17c8:	4b 99       	sbic	0x09, 3	; 9
    17ca:	88 60       	ori	r24, 0x08	; 8
        lcd_e_low();
    17cc:	2c 98       	cbi	0x05, 4	; 5
    }
    return data;
}
    17ce:	08 95       	ret

000017d0 <lcd_waitbusy>:

{
    register uint8_t c;
    
    /* wait until busy flag is cleared */
    while ( (c=lcd_read(0)) & (1<<LCD_BUSY)) {}
    17d0:	80 e0       	ldi	r24, 0x00	; 0
    17d2:	0e 94 c3 0b 	call	0x1786	; 0x1786 <lcd_read>
    17d6:	88 23       	and	r24, r24
    17d8:	dc f3       	brlt	.-10     	; 0x17d0 <lcd_waitbusy>
    17da:	00 c0       	rjmp	.+0      	; 0x17dc <lcd_waitbusy+0xc>
    17dc:	00 c0       	rjmp	.+0      	; 0x17de <lcd_waitbusy+0xe>
    
    /* the address counter is updated 4us after the busy flag is cleared */
    delay(LCD_DELAY_BUSY_FLAG);

    /* now read the address counter */
    return (lcd_read(0));  // return address counter
    17de:	80 e0       	ldi	r24, 0x00	; 0
    17e0:	0e 94 c3 0b 	call	0x1786	; 0x1786 <lcd_read>
    
}/* lcd_waitbusy */
    17e4:	08 95       	ret

000017e6 <lcd_command>:
Send LCD controller instruction command
Input:   instruction to send to LCD controller, see HD44780 data sheet
Returns: none
*************************************************************************/
void lcd_command(uint8_t cmd)
{
    17e6:	cf 93       	push	r28
    17e8:	c8 2f       	mov	r28, r24
    lcd_waitbusy();
    17ea:	0e 94 e8 0b 	call	0x17d0	; 0x17d0 <lcd_waitbusy>
    lcd_write(cmd,0);
    17ee:	8c 2f       	mov	r24, r28
    17f0:	60 e0       	ldi	r22, 0x00	; 0
    17f2:	0e 94 94 0b 	call	0x1728	; 0x1728 <lcd_write>
}
    17f6:	cf 91       	pop	r28
    17f8:	08 95       	ret

000017fa <lcd_data>:
Send data byte to LCD controller 
Input:   data to send to LCD controller, see HD44780 data sheet
Returns: none
*************************************************************************/
void lcd_data(uint8_t data)
{
    17fa:	cf 93       	push	r28
    17fc:	c8 2f       	mov	r28, r24
    lcd_waitbusy();
    17fe:	0e 94 e8 0b 	call	0x17d0	; 0x17d0 <lcd_waitbusy>
    lcd_write(data,1);
    1802:	8c 2f       	mov	r24, r28
    1804:	61 e0       	ldi	r22, 0x01	; 1
    1806:	0e 94 94 0b 	call	0x1728	; 0x1728 <lcd_write>
}
    180a:	cf 91       	pop	r28
    180c:	08 95       	ret

0000180e <lcd_gotoxy>:
{
#if LCD_LINES==1
    lcd_command((1<<LCD_DDRAM)+LCD_START_LINE1+x);
#endif
#if LCD_LINES==2
    if ( y==0 ) 
    180e:	66 23       	and	r22, r22
    1810:	21 f4       	brne	.+8      	; 0x181a <lcd_gotoxy+0xc>
        lcd_command((1<<LCD_DDRAM)+LCD_START_LINE1+x);
    1812:	80 58       	subi	r24, 0x80	; 128
    1814:	0e 94 f3 0b 	call	0x17e6	; 0x17e6 <lcd_command>
    1818:	08 95       	ret
    else
        lcd_command((1<<LCD_DDRAM)+LCD_START_LINE2+x);
    181a:	80 54       	subi	r24, 0x40	; 64
    181c:	0e 94 f3 0b 	call	0x17e6	; 0x17e6 <lcd_command>
    1820:	08 95       	ret

00001822 <lcd_getxy>:

/*************************************************************************
*************************************************************************/
int lcd_getxy(void)
{
    return lcd_waitbusy();
    1822:	0e 94 e8 0b 	call	0x17d0	; 0x17d0 <lcd_waitbusy>
}
    1826:	90 e0       	ldi	r25, 0x00	; 0
    1828:	08 95       	ret

0000182a <lcd_clrscr>:
/*************************************************************************
Clear display and set cursor to home position
*************************************************************************/
void lcd_clrscr(void)
{
    lcd_command(1<<LCD_CLR);
    182a:	81 e0       	ldi	r24, 0x01	; 1
    182c:	0e 94 f3 0b 	call	0x17e6	; 0x17e6 <lcd_command>
}
    1830:	08 95       	ret

00001832 <lcd_home>:
/*************************************************************************
Set cursor to home position
*************************************************************************/
void lcd_home(void)
{
    lcd_command(1<<LCD_HOME);
    1832:	82 e0       	ldi	r24, 0x02	; 2
    1834:	0e 94 f3 0b 	call	0x17e6	; 0x17e6 <lcd_command>
}
    1838:	08 95       	ret

0000183a <lcd_putc>:
Display character at current cursor position 
Input:    character to be displayed                                       
Returns:  none
*************************************************************************/
void lcd_putc(char c)
{
    183a:	cf 93       	push	r28
    183c:	c8 2f       	mov	r28, r24
    uint8_t pos;


    pos = lcd_waitbusy();   // read busy-flag and address counter
    183e:	0e 94 e8 0b 	call	0x17d0	; 0x17d0 <lcd_waitbusy>
    if (c=='\n')
    1842:	ca 30       	cpi	r28, 0x0A	; 10
    1844:	49 f4       	brne	.+18     	; 0x1858 <lcd_putc+0x1e>

#if LCD_LINES==1
    addressCounter = 0;
#endif
#if LCD_LINES==2
    if ( pos < (LCD_START_LINE2) )
    1846:	80 34       	cpi	r24, 0x40	; 64
    1848:	10 f4       	brcc	.+4      	; 0x184e <lcd_putc+0x14>
        addressCounter = LCD_START_LINE2;
    184a:	80 e4       	ldi	r24, 0x40	; 64
    184c:	01 c0       	rjmp	.+2      	; 0x1850 <lcd_putc+0x16>
    else
        addressCounter = LCD_START_LINE1;
    184e:	80 e0       	ldi	r24, 0x00	; 0
        addressCounter = LCD_START_LINE4;
    else 
        addressCounter = LCD_START_LINE1;
#endif
#endif
    lcd_command((1<<LCD_DDRAM)+addressCounter);
    1850:	80 58       	subi	r24, 0x80	; 128
    1852:	0e 94 f3 0b 	call	0x17e6	; 0x17e6 <lcd_command>
    1856:	04 c0       	rjmp	.+8      	; 0x1860 <lcd_putc+0x26>
            lcd_write((1<<LCD_DDRAM)+LCD_START_LINE1,0);
        }
#endif
        lcd_waitbusy();
#endif
        lcd_write(c, 1);
    1858:	8c 2f       	mov	r24, r28
    185a:	61 e0       	ldi	r22, 0x01	; 1
    185c:	0e 94 94 0b 	call	0x1728	; 0x1728 <lcd_write>
    }

}/* lcd_putc */
    1860:	cf 91       	pop	r28
    1862:	08 95       	ret

00001864 <lcd_puts>:
Input:    string to be displayed
Returns:  none
*************************************************************************/
void lcd_puts(const char *s)
/* print string on lcd (no auto linefeed) */
{
    1864:	cf 93       	push	r28
    1866:	df 93       	push	r29
    1868:	ec 01       	movw	r28, r24
    register char c;

    while ( (c = *s++) ) {
    186a:	88 81       	ld	r24, Y
    186c:	88 23       	and	r24, r24
    186e:	31 f0       	breq	.+12     	; 0x187c <lcd_puts+0x18>
    1870:	21 96       	adiw	r28, 0x01	; 1
        lcd_putc(c);
    1872:	0e 94 1d 0c 	call	0x183a	; 0x183a <lcd_putc>
void lcd_puts(const char *s)
/* print string on lcd (no auto linefeed) */
{
    register char c;

    while ( (c = *s++) ) {
    1876:	89 91       	ld	r24, Y+
    1878:	88 23       	and	r24, r24
    187a:	d9 f7       	brne	.-10     	; 0x1872 <lcd_puts+0xe>
        lcd_putc(c);
    }

}/* lcd_puts */
    187c:	df 91       	pop	r29
    187e:	cf 91       	pop	r28
    1880:	08 95       	ret

00001882 <lcd_puts_p>:
Input:     string from program memory be be displayed                                        
Returns:   none
*************************************************************************/
void lcd_puts_p(const char *progmem_s)
/* print string from program memory on lcd (no auto linefeed) */
{
    1882:	cf 93       	push	r28
    1884:	df 93       	push	r29
    1886:	ec 01       	movw	r28, r24
    register char c;

    while ( (c = pgm_read_byte(progmem_s++)) ) {
    1888:	fc 01       	movw	r30, r24
    188a:	84 91       	lpm	r24, Z
    188c:	88 23       	and	r24, r24
    188e:	41 f0       	breq	.+16     	; 0x18a0 <lcd_puts_p+0x1e>
    1890:	21 96       	adiw	r28, 0x01	; 1
        lcd_putc(c);
    1892:	0e 94 1d 0c 	call	0x183a	; 0x183a <lcd_putc>
void lcd_puts_p(const char *progmem_s)
/* print string from program memory on lcd (no auto linefeed) */
{
    register char c;

    while ( (c = pgm_read_byte(progmem_s++)) ) {
    1896:	fe 01       	movw	r30, r28
    1898:	21 96       	adiw	r28, 0x01	; 1
    189a:	84 91       	lpm	r24, Z
    189c:	88 23       	and	r24, r24
    189e:	c9 f7       	brne	.-14     	; 0x1892 <lcd_puts_p+0x10>
        lcd_putc(c);
    }

}/* lcd_puts_p */
    18a0:	df 91       	pop	r29
    18a2:	cf 91       	pop	r28
    18a4:	08 95       	ret

000018a6 <lcd_init>:
                   LCD_DISP_ON_CURSOR      display on, cursor on
                   LCD_DISP_CURSOR_BLINK   display on, cursor on flashing
Returns:  none
*************************************************************************/
void lcd_init(uint8_t dispAttr)
{
    18a6:	cf 93       	push	r28
    18a8:	c8 2f       	mov	r28, r24
        DDR(LCD_E_PORT)     |= _BV(LCD_E_PIN);
    }
    else
    {
        /* configure all port bits as output (LCD data and control lines on different ports */
        DDR(LCD_RS_PORT)    |= _BV(LCD_RS_PIN);
    18aa:	21 9a       	sbi	0x04, 1	; 4
        DDR(LCD_RW_PORT)    |= _BV(LCD_RW_PIN);
    18ac:	54 9a       	sbi	0x0a, 4	; 10
        DDR(LCD_E_PORT)     |= _BV(LCD_E_PIN);
    18ae:	24 9a       	sbi	0x04, 4	; 4
        DDR(LCD_DATA0_PORT) |= _BV(LCD_DATA0_PIN);
    18b0:	50 9a       	sbi	0x0a, 0	; 10
        DDR(LCD_DATA1_PORT) |= _BV(LCD_DATA1_PIN);
    18b2:	57 9a       	sbi	0x0a, 7	; 10
        DDR(LCD_DATA2_PORT) |= _BV(LCD_DATA2_PIN);
    18b4:	52 9a       	sbi	0x0a, 2	; 10
        DDR(LCD_DATA3_PORT) |= _BV(LCD_DATA3_PIN);
    18b6:	53 9a       	sbi	0x0a, 3	; 10
    18b8:	8f e9       	ldi	r24, 0x9F	; 159
    18ba:	9f e0       	ldi	r25, 0x0F	; 15
    18bc:	01 97       	sbiw	r24, 0x01	; 1
    18be:	f1 f7       	brne	.-4      	; 0x18bc <lcd_init+0x16>
    18c0:	00 c0       	rjmp	.+0      	; 0x18c2 <lcd_init+0x1c>
    18c2:	00 00       	nop
    }
    delay(LCD_DELAY_BOOTUP);             /* wait 16ms or more after power-on       */
    
    /* initial write to lcd is 8bit */
    LCD_DATA1_PORT |= _BV(LCD_DATA1_PIN);    // LCD_FUNCTION>>4;
    18c4:	5f 9a       	sbi	0x0b, 7	; 11
    LCD_DATA0_PORT |= _BV(LCD_DATA0_PIN);    // LCD_FUNCTION_8BIT>>4;
    18c6:	58 9a       	sbi	0x0b, 0	; 11
    lcd_e_toggle();
    18c8:	0e 94 90 0b 	call	0x1720	; 0x1720 <toggle_e>
    18cc:	81 ee       	ldi	r24, 0xE1	; 225
    18ce:	94 e0       	ldi	r25, 0x04	; 4
    18d0:	01 97       	sbiw	r24, 0x01	; 1
    18d2:	f1 f7       	brne	.-4      	; 0x18d0 <lcd_init+0x2a>
    18d4:	00 c0       	rjmp	.+0      	; 0x18d6 <lcd_init+0x30>
    18d6:	00 00       	nop
    delay(LCD_DELAY_INIT);               /* delay, busy flag can't be checked here */
   
    /* repeat last command */ 
    lcd_e_toggle();      
    18d8:	0e 94 90 0b 	call	0x1720	; 0x1720 <toggle_e>
    18dc:	95 e1       	ldi	r25, 0x15	; 21
    18de:	9a 95       	dec	r25
    18e0:	f1 f7       	brne	.-4      	; 0x18de <lcd_init+0x38>
    18e2:	00 00       	nop
    delay(LCD_DELAY_INIT_REP);           /* delay, busy flag can't be checked here */
    
    /* repeat last command a third time */
    lcd_e_toggle();      
    18e4:	0e 94 90 0b 	call	0x1720	; 0x1720 <toggle_e>
    18e8:	85 e1       	ldi	r24, 0x15	; 21
    18ea:	8a 95       	dec	r24
    18ec:	f1 f7       	brne	.-4      	; 0x18ea <lcd_init+0x44>
    18ee:	00 00       	nop
    delay(LCD_DELAY_INIT_REP);           /* delay, busy flag can't be checked here */

    /* now configure for 4bit mode */
    LCD_DATA0_PORT &= ~_BV(LCD_DATA0_PIN);   // LCD_FUNCTION_4BIT_1LINE>>4
    18f0:	58 98       	cbi	0x0b, 0	; 11
    lcd_e_toggle();
    18f2:	0e 94 90 0b 	call	0x1720	; 0x1720 <toggle_e>
    18f6:	95 e1       	ldi	r25, 0x15	; 21
    18f8:	9a 95       	dec	r25
    18fa:	f1 f7       	brne	.-4      	; 0x18f8 <lcd_init+0x52>
    18fc:	00 00       	nop
    /* Display with KS0073 controller requires special commands for enabling 4 line mode */
	lcd_command(KS0073_EXTENDED_FUNCTION_REGISTER_ON);
	lcd_command(KS0073_4LINES_MODE);
	lcd_command(KS0073_EXTENDED_FUNCTION_REGISTER_OFF);
#else
    lcd_command(LCD_FUNCTION_DEFAULT);      /* function set: display lines  */
    18fe:	88 e2       	ldi	r24, 0x28	; 40
    1900:	0e 94 f3 0b 	call	0x17e6	; 0x17e6 <lcd_command>
#endif
    lcd_command(LCD_DISP_OFF);              /* display off                  */
    1904:	88 e0       	ldi	r24, 0x08	; 8
    1906:	0e 94 f3 0b 	call	0x17e6	; 0x17e6 <lcd_command>
    lcd_clrscr();                           /* display clear                */ 
    190a:	0e 94 15 0c 	call	0x182a	; 0x182a <lcd_clrscr>
    lcd_command(LCD_MODE_DEFAULT);          /* set entry mode               */
    190e:	86 e0       	ldi	r24, 0x06	; 6
    1910:	0e 94 f3 0b 	call	0x17e6	; 0x17e6 <lcd_command>
    lcd_command(dispAttr);                  /* display/cursor control       */
    1914:	8c 2f       	mov	r24, r28
    1916:	0e 94 f3 0b 	call	0x17e6	; 0x17e6 <lcd_command>

}/* lcd_init */
    191a:	cf 91       	pop	r28
    191c:	08 95       	ret

0000191e <millis_init>:

// Initialise library
void millis_init()
{
	// Timer settings
	SET_TCCRA();
    191e:	82 e0       	ldi	r24, 0x02	; 2
    1920:	80 93 b0 00 	sts	0x00B0, r24
	SET_TCCRB();
    1924:	94 e0       	ldi	r25, 0x04	; 4
    1926:	90 93 b1 00 	sts	0x00B1, r25
	REG_TIMSK = _BV(BIT_OCIE);
    192a:	80 93 70 00 	sts	0x0070, r24
	REG_OCR = ((F_CPU / PRESCALER) / 1000);
    192e:	8a ef       	ldi	r24, 0xFA	; 250
    1930:	80 93 b3 00 	sts	0x00B3, r24
}
    1934:	08 95       	ret

00001936 <millis_get>:

// Get current milliseconds
millis_t millis_get()
{
    1936:	0f 93       	push	r16
    1938:	1f 93       	push	r17
	millis_t ms;
	ATOMIC_BLOCK(ATOMIC_RESTORESTATE)
    193a:	8f b7       	in	r24, 0x3f	; 63
    return 1;
}

static __inline__ uint8_t __iCliRetVal(void)
{
    cli();
    193c:	f8 94       	cli
	{
		ms = milliseconds;
    193e:	00 91 c0 02 	lds	r16, 0x02C0
    1942:	10 91 c1 02 	lds	r17, 0x02C1
    1946:	20 91 c2 02 	lds	r18, 0x02C2
    194a:	30 91 c3 02 	lds	r19, 0x02C3
    (void)__s;
}

static __inline__ void __iRestore(const  uint8_t *__s)
{
    SREG = *__s;
    194e:	8f bf       	out	0x3f, r24	; 63
	}
	return ms;
}
    1950:	60 2f       	mov	r22, r16
    1952:	71 2f       	mov	r23, r17
    1954:	82 2f       	mov	r24, r18
    1956:	93 2f       	mov	r25, r19
    1958:	1f 91       	pop	r17
    195a:	0f 91       	pop	r16
    195c:	08 95       	ret

0000195e <millis_resume>:

// Turn on timer and resume time keeping
void millis_resume()
{
	pwr_enable();
    195e:	e4 e6       	ldi	r30, 0x64	; 100
    1960:	f0 e0       	ldi	r31, 0x00	; 0
    1962:	80 81       	ld	r24, Z
    1964:	8f 7b       	andi	r24, 0xBF	; 191
    1966:	80 83       	st	Z, r24
	REG_TIMSK |= _BV(BIT_OCIE);
    1968:	e0 e7       	ldi	r30, 0x70	; 112
    196a:	f0 e0       	ldi	r31, 0x00	; 0
    196c:	80 81       	ld	r24, Z
    196e:	82 60       	ori	r24, 0x02	; 2
    1970:	80 83       	st	Z, r24
}
    1972:	08 95       	ret

00001974 <millis_pause>:

// Pause time keeping and turn off timer to save power
void millis_pause()
{
	REG_TIMSK &= ~_BV(BIT_OCIE);
    1974:	e0 e7       	ldi	r30, 0x70	; 112
    1976:	f0 e0       	ldi	r31, 0x00	; 0
    1978:	80 81       	ld	r24, Z
    197a:	8d 7f       	andi	r24, 0xFD	; 253
    197c:	80 83       	st	Z, r24
	pwr_disable();
    197e:	e4 e6       	ldi	r30, 0x64	; 100
    1980:	f0 e0       	ldi	r31, 0x00	; 0
    1982:	80 81       	ld	r24, Z
    1984:	80 64       	ori	r24, 0x40	; 64
    1986:	80 83       	st	Z, r24
}
    1988:	08 95       	ret

0000198a <millis_reset>:

// Reset milliseconds count to 0
void millis_reset()
{
	ATOMIC_BLOCK(ATOMIC_RESTORESTATE)
    198a:	8f b7       	in	r24, 0x3f	; 63
    return 1;
}

static __inline__ uint8_t __iCliRetVal(void)
{
    cli();
    198c:	f8 94       	cli
	{
		milliseconds = 0;
    198e:	10 92 c0 02 	sts	0x02C0, r1
    1992:	10 92 c1 02 	sts	0x02C1, r1
    1996:	10 92 c2 02 	sts	0x02C2, r1
    199a:	10 92 c3 02 	sts	0x02C3, r1
    (void)__s;
}

static __inline__ void __iRestore(const  uint8_t *__s)
{
    SREG = *__s;
    199e:	8f bf       	out	0x3f, r24	; 63
	}
}
    19a0:	08 95       	ret

000019a2 <millis_add>:

// Add time
void millis_add(millis_t ms)
{
    19a2:	ab 01       	movw	r20, r22
    19a4:	bc 01       	movw	r22, r24
	ATOMIC_BLOCK(ATOMIC_RESTORESTATE)
    19a6:	2f b7       	in	r18, 0x3f	; 63
    return 1;
}

static __inline__ uint8_t __iCliRetVal(void)
{
    cli();
    19a8:	f8 94       	cli
	{
		milliseconds += ms;
    19aa:	80 91 c0 02 	lds	r24, 0x02C0
    19ae:	90 91 c1 02 	lds	r25, 0x02C1
    19b2:	a0 91 c2 02 	lds	r26, 0x02C2
    19b6:	b0 91 c3 02 	lds	r27, 0x02C3
    19ba:	84 0f       	add	r24, r20
    19bc:	95 1f       	adc	r25, r21
    19be:	a6 1f       	adc	r26, r22
    19c0:	b7 1f       	adc	r27, r23
    19c2:	80 93 c0 02 	sts	0x02C0, r24
    19c6:	90 93 c1 02 	sts	0x02C1, r25
    19ca:	a0 93 c2 02 	sts	0x02C2, r26
    19ce:	b0 93 c3 02 	sts	0x02C3, r27
    (void)__s;
}

static __inline__ void __iRestore(const  uint8_t *__s)
{
    SREG = *__s;
    19d2:	2f bf       	out	0x3f, r18	; 63
	}
}
    19d4:	08 95       	ret

000019d6 <millis_subtract>:

// Subtract time
void millis_subtract(millis_t ms)
{
    19d6:	ab 01       	movw	r20, r22
    19d8:	bc 01       	movw	r22, r24
	ATOMIC_BLOCK(ATOMIC_RESTORESTATE)
    19da:	2f b7       	in	r18, 0x3f	; 63
    return 1;
}

static __inline__ uint8_t __iCliRetVal(void)
{
    cli();
    19dc:	f8 94       	cli
	{
		milliseconds -= ms;
    19de:	80 91 c0 02 	lds	r24, 0x02C0
    19e2:	90 91 c1 02 	lds	r25, 0x02C1
    19e6:	a0 91 c2 02 	lds	r26, 0x02C2
    19ea:	b0 91 c3 02 	lds	r27, 0x02C3
    19ee:	84 1b       	sub	r24, r20
    19f0:	95 0b       	sbc	r25, r21
    19f2:	a6 0b       	sbc	r26, r22
    19f4:	b7 0b       	sbc	r27, r23
    19f6:	80 93 c0 02 	sts	0x02C0, r24
    19fa:	90 93 c1 02 	sts	0x02C1, r25
    19fe:	a0 93 c2 02 	sts	0x02C2, r26
    1a02:	b0 93 c3 02 	sts	0x02C3, r27
    (void)__s;
}

static __inline__ void __iRestore(const  uint8_t *__s)
{
    SREG = *__s;
    1a06:	2f bf       	out	0x3f, r18	; 63
	}
}
    1a08:	08 95       	ret

00001a0a <__vector_7>:

ISR(ISR_VECT)
{
    1a0a:	1f 92       	push	r1
    1a0c:	0f 92       	push	r0
    1a0e:	0f b6       	in	r0, 0x3f	; 63
    1a10:	0f 92       	push	r0
    1a12:	11 24       	eor	r1, r1
    1a14:	8f 93       	push	r24
    1a16:	9f 93       	push	r25
    1a18:	af 93       	push	r26
    1a1a:	bf 93       	push	r27
	++milliseconds;
    1a1c:	80 91 c0 02 	lds	r24, 0x02C0
    1a20:	90 91 c1 02 	lds	r25, 0x02C1
    1a24:	a0 91 c2 02 	lds	r26, 0x02C2
    1a28:	b0 91 c3 02 	lds	r27, 0x02C3
    1a2c:	01 96       	adiw	r24, 0x01	; 1
    1a2e:	a1 1d       	adc	r26, r1
    1a30:	b1 1d       	adc	r27, r1
    1a32:	80 93 c0 02 	sts	0x02C0, r24
    1a36:	90 93 c1 02 	sts	0x02C1, r25
    1a3a:	a0 93 c2 02 	sts	0x02C2, r26
    1a3e:	b0 93 c3 02 	sts	0x02C3, r27
}
    1a42:	bf 91       	pop	r27
    1a44:	af 91       	pop	r26
    1a46:	9f 91       	pop	r25
    1a48:	8f 91       	pop	r24
    1a4a:	0f 90       	pop	r0
    1a4c:	0f be       	out	0x3f, r0	; 63
    1a4e:	0f 90       	pop	r0
    1a50:	1f 90       	pop	r1
    1a52:	18 95       	reti

00001a54 <__subsf3>:
    1a54:	50 58       	subi	r21, 0x80	; 128

00001a56 <__addsf3>:
    1a56:	bb 27       	eor	r27, r27
    1a58:	aa 27       	eor	r26, r26
    1a5a:	0e d0       	rcall	.+28     	; 0x1a78 <__addsf3x>
    1a5c:	75 c1       	rjmp	.+746    	; 0x1d48 <__fp_round>
    1a5e:	66 d1       	rcall	.+716    	; 0x1d2c <__fp_pscA>
    1a60:	30 f0       	brcs	.+12     	; 0x1a6e <__addsf3+0x18>
    1a62:	6b d1       	rcall	.+726    	; 0x1d3a <__fp_pscB>
    1a64:	20 f0       	brcs	.+8      	; 0x1a6e <__addsf3+0x18>
    1a66:	31 f4       	brne	.+12     	; 0x1a74 <__addsf3+0x1e>
    1a68:	9f 3f       	cpi	r25, 0xFF	; 255
    1a6a:	11 f4       	brne	.+4      	; 0x1a70 <__addsf3+0x1a>
    1a6c:	1e f4       	brtc	.+6      	; 0x1a74 <__addsf3+0x1e>
    1a6e:	5b c1       	rjmp	.+694    	; 0x1d26 <__fp_nan>
    1a70:	0e f4       	brtc	.+2      	; 0x1a74 <__addsf3+0x1e>
    1a72:	e0 95       	com	r30
    1a74:	e7 fb       	bst	r30, 7
    1a76:	51 c1       	rjmp	.+674    	; 0x1d1a <__fp_inf>

00001a78 <__addsf3x>:
    1a78:	e9 2f       	mov	r30, r25
    1a7a:	77 d1       	rcall	.+750    	; 0x1d6a <__fp_split3>
    1a7c:	80 f3       	brcs	.-32     	; 0x1a5e <__addsf3+0x8>
    1a7e:	ba 17       	cp	r27, r26
    1a80:	62 07       	cpc	r22, r18
    1a82:	73 07       	cpc	r23, r19
    1a84:	84 07       	cpc	r24, r20
    1a86:	95 07       	cpc	r25, r21
    1a88:	18 f0       	brcs	.+6      	; 0x1a90 <__addsf3x+0x18>
    1a8a:	71 f4       	brne	.+28     	; 0x1aa8 <__addsf3x+0x30>
    1a8c:	9e f5       	brtc	.+102    	; 0x1af4 <__addsf3x+0x7c>
    1a8e:	8f c1       	rjmp	.+798    	; 0x1dae <__fp_zero>
    1a90:	0e f4       	brtc	.+2      	; 0x1a94 <__addsf3x+0x1c>
    1a92:	e0 95       	com	r30
    1a94:	0b 2e       	mov	r0, r27
    1a96:	ba 2f       	mov	r27, r26
    1a98:	a0 2d       	mov	r26, r0
    1a9a:	0b 01       	movw	r0, r22
    1a9c:	b9 01       	movw	r22, r18
    1a9e:	90 01       	movw	r18, r0
    1aa0:	0c 01       	movw	r0, r24
    1aa2:	ca 01       	movw	r24, r20
    1aa4:	a0 01       	movw	r20, r0
    1aa6:	11 24       	eor	r1, r1
    1aa8:	ff 27       	eor	r31, r31
    1aaa:	59 1b       	sub	r21, r25
    1aac:	99 f0       	breq	.+38     	; 0x1ad4 <__addsf3x+0x5c>
    1aae:	59 3f       	cpi	r21, 0xF9	; 249
    1ab0:	50 f4       	brcc	.+20     	; 0x1ac6 <__addsf3x+0x4e>
    1ab2:	50 3e       	cpi	r21, 0xE0	; 224
    1ab4:	68 f1       	brcs	.+90     	; 0x1b10 <__addsf3x+0x98>
    1ab6:	1a 16       	cp	r1, r26
    1ab8:	f0 40       	sbci	r31, 0x00	; 0
    1aba:	a2 2f       	mov	r26, r18
    1abc:	23 2f       	mov	r18, r19
    1abe:	34 2f       	mov	r19, r20
    1ac0:	44 27       	eor	r20, r20
    1ac2:	58 5f       	subi	r21, 0xF8	; 248
    1ac4:	f3 cf       	rjmp	.-26     	; 0x1aac <__addsf3x+0x34>
    1ac6:	46 95       	lsr	r20
    1ac8:	37 95       	ror	r19
    1aca:	27 95       	ror	r18
    1acc:	a7 95       	ror	r26
    1ace:	f0 40       	sbci	r31, 0x00	; 0
    1ad0:	53 95       	inc	r21
    1ad2:	c9 f7       	brne	.-14     	; 0x1ac6 <__addsf3x+0x4e>
    1ad4:	7e f4       	brtc	.+30     	; 0x1af4 <__addsf3x+0x7c>
    1ad6:	1f 16       	cp	r1, r31
    1ad8:	ba 0b       	sbc	r27, r26
    1ada:	62 0b       	sbc	r22, r18
    1adc:	73 0b       	sbc	r23, r19
    1ade:	84 0b       	sbc	r24, r20
    1ae0:	ba f0       	brmi	.+46     	; 0x1b10 <__addsf3x+0x98>
    1ae2:	91 50       	subi	r25, 0x01	; 1
    1ae4:	a1 f0       	breq	.+40     	; 0x1b0e <__addsf3x+0x96>
    1ae6:	ff 0f       	add	r31, r31
    1ae8:	bb 1f       	adc	r27, r27
    1aea:	66 1f       	adc	r22, r22
    1aec:	77 1f       	adc	r23, r23
    1aee:	88 1f       	adc	r24, r24
    1af0:	c2 f7       	brpl	.-16     	; 0x1ae2 <__addsf3x+0x6a>
    1af2:	0e c0       	rjmp	.+28     	; 0x1b10 <__addsf3x+0x98>
    1af4:	ba 0f       	add	r27, r26
    1af6:	62 1f       	adc	r22, r18
    1af8:	73 1f       	adc	r23, r19
    1afa:	84 1f       	adc	r24, r20
    1afc:	48 f4       	brcc	.+18     	; 0x1b10 <__addsf3x+0x98>
    1afe:	87 95       	ror	r24
    1b00:	77 95       	ror	r23
    1b02:	67 95       	ror	r22
    1b04:	b7 95       	ror	r27
    1b06:	f7 95       	ror	r31
    1b08:	9e 3f       	cpi	r25, 0xFE	; 254
    1b0a:	08 f0       	brcs	.+2      	; 0x1b0e <__addsf3x+0x96>
    1b0c:	b3 cf       	rjmp	.-154    	; 0x1a74 <__addsf3+0x1e>
    1b0e:	93 95       	inc	r25
    1b10:	88 0f       	add	r24, r24
    1b12:	08 f0       	brcs	.+2      	; 0x1b16 <__addsf3x+0x9e>
    1b14:	99 27       	eor	r25, r25
    1b16:	ee 0f       	add	r30, r30
    1b18:	97 95       	ror	r25
    1b1a:	87 95       	ror	r24
    1b1c:	08 95       	ret

00001b1e <__cmpsf2>:
    1b1e:	d9 d0       	rcall	.+434    	; 0x1cd2 <__fp_cmp>
    1b20:	08 f4       	brcc	.+2      	; 0x1b24 <__cmpsf2+0x6>
    1b22:	81 e0       	ldi	r24, 0x01	; 1
    1b24:	08 95       	ret

00001b26 <__divsf3>:
    1b26:	0c d0       	rcall	.+24     	; 0x1b40 <__divsf3x>
    1b28:	0f c1       	rjmp	.+542    	; 0x1d48 <__fp_round>
    1b2a:	07 d1       	rcall	.+526    	; 0x1d3a <__fp_pscB>
    1b2c:	40 f0       	brcs	.+16     	; 0x1b3e <__divsf3+0x18>
    1b2e:	fe d0       	rcall	.+508    	; 0x1d2c <__fp_pscA>
    1b30:	30 f0       	brcs	.+12     	; 0x1b3e <__divsf3+0x18>
    1b32:	21 f4       	brne	.+8      	; 0x1b3c <__divsf3+0x16>
    1b34:	5f 3f       	cpi	r21, 0xFF	; 255
    1b36:	19 f0       	breq	.+6      	; 0x1b3e <__divsf3+0x18>
    1b38:	f0 c0       	rjmp	.+480    	; 0x1d1a <__fp_inf>
    1b3a:	51 11       	cpse	r21, r1
    1b3c:	39 c1       	rjmp	.+626    	; 0x1db0 <__fp_szero>
    1b3e:	f3 c0       	rjmp	.+486    	; 0x1d26 <__fp_nan>

00001b40 <__divsf3x>:
    1b40:	14 d1       	rcall	.+552    	; 0x1d6a <__fp_split3>
    1b42:	98 f3       	brcs	.-26     	; 0x1b2a <__divsf3+0x4>

00001b44 <__divsf3_pse>:
    1b44:	99 23       	and	r25, r25
    1b46:	c9 f3       	breq	.-14     	; 0x1b3a <__divsf3+0x14>
    1b48:	55 23       	and	r21, r21
    1b4a:	b1 f3       	breq	.-20     	; 0x1b38 <__divsf3+0x12>
    1b4c:	95 1b       	sub	r25, r21
    1b4e:	55 0b       	sbc	r21, r21
    1b50:	bb 27       	eor	r27, r27
    1b52:	aa 27       	eor	r26, r26
    1b54:	62 17       	cp	r22, r18
    1b56:	73 07       	cpc	r23, r19
    1b58:	84 07       	cpc	r24, r20
    1b5a:	38 f0       	brcs	.+14     	; 0x1b6a <__divsf3_pse+0x26>
    1b5c:	9f 5f       	subi	r25, 0xFF	; 255
    1b5e:	5f 4f       	sbci	r21, 0xFF	; 255
    1b60:	22 0f       	add	r18, r18
    1b62:	33 1f       	adc	r19, r19
    1b64:	44 1f       	adc	r20, r20
    1b66:	aa 1f       	adc	r26, r26
    1b68:	a9 f3       	breq	.-22     	; 0x1b54 <__divsf3_pse+0x10>
    1b6a:	33 d0       	rcall	.+102    	; 0x1bd2 <__divsf3_pse+0x8e>
    1b6c:	0e 2e       	mov	r0, r30
    1b6e:	3a f0       	brmi	.+14     	; 0x1b7e <__divsf3_pse+0x3a>
    1b70:	e0 e8       	ldi	r30, 0x80	; 128
    1b72:	30 d0       	rcall	.+96     	; 0x1bd4 <__divsf3_pse+0x90>
    1b74:	91 50       	subi	r25, 0x01	; 1
    1b76:	50 40       	sbci	r21, 0x00	; 0
    1b78:	e6 95       	lsr	r30
    1b7a:	00 1c       	adc	r0, r0
    1b7c:	ca f7       	brpl	.-14     	; 0x1b70 <__divsf3_pse+0x2c>
    1b7e:	29 d0       	rcall	.+82     	; 0x1bd2 <__divsf3_pse+0x8e>
    1b80:	fe 2f       	mov	r31, r30
    1b82:	27 d0       	rcall	.+78     	; 0x1bd2 <__divsf3_pse+0x8e>
    1b84:	66 0f       	add	r22, r22
    1b86:	77 1f       	adc	r23, r23
    1b88:	88 1f       	adc	r24, r24
    1b8a:	bb 1f       	adc	r27, r27
    1b8c:	26 17       	cp	r18, r22
    1b8e:	37 07       	cpc	r19, r23
    1b90:	48 07       	cpc	r20, r24
    1b92:	ab 07       	cpc	r26, r27
    1b94:	b0 e8       	ldi	r27, 0x80	; 128
    1b96:	09 f0       	breq	.+2      	; 0x1b9a <__divsf3_pse+0x56>
    1b98:	bb 0b       	sbc	r27, r27
    1b9a:	80 2d       	mov	r24, r0
    1b9c:	bf 01       	movw	r22, r30
    1b9e:	ff 27       	eor	r31, r31
    1ba0:	93 58       	subi	r25, 0x83	; 131
    1ba2:	5f 4f       	sbci	r21, 0xFF	; 255
    1ba4:	2a f0       	brmi	.+10     	; 0x1bb0 <__divsf3_pse+0x6c>
    1ba6:	9e 3f       	cpi	r25, 0xFE	; 254
    1ba8:	51 05       	cpc	r21, r1
    1baa:	68 f0       	brcs	.+26     	; 0x1bc6 <__divsf3_pse+0x82>
    1bac:	b6 c0       	rjmp	.+364    	; 0x1d1a <__fp_inf>
    1bae:	00 c1       	rjmp	.+512    	; 0x1db0 <__fp_szero>
    1bb0:	5f 3f       	cpi	r21, 0xFF	; 255
    1bb2:	ec f3       	brlt	.-6      	; 0x1bae <__divsf3_pse+0x6a>
    1bb4:	98 3e       	cpi	r25, 0xE8	; 232
    1bb6:	dc f3       	brlt	.-10     	; 0x1bae <__divsf3_pse+0x6a>
    1bb8:	86 95       	lsr	r24
    1bba:	77 95       	ror	r23
    1bbc:	67 95       	ror	r22
    1bbe:	b7 95       	ror	r27
    1bc0:	f7 95       	ror	r31
    1bc2:	9f 5f       	subi	r25, 0xFF	; 255
    1bc4:	c9 f7       	brne	.-14     	; 0x1bb8 <__divsf3_pse+0x74>
    1bc6:	88 0f       	add	r24, r24
    1bc8:	91 1d       	adc	r25, r1
    1bca:	96 95       	lsr	r25
    1bcc:	87 95       	ror	r24
    1bce:	97 f9       	bld	r25, 7
    1bd0:	08 95       	ret
    1bd2:	e1 e0       	ldi	r30, 0x01	; 1
    1bd4:	66 0f       	add	r22, r22
    1bd6:	77 1f       	adc	r23, r23
    1bd8:	88 1f       	adc	r24, r24
    1bda:	bb 1f       	adc	r27, r27
    1bdc:	62 17       	cp	r22, r18
    1bde:	73 07       	cpc	r23, r19
    1be0:	84 07       	cpc	r24, r20
    1be2:	ba 07       	cpc	r27, r26
    1be4:	20 f0       	brcs	.+8      	; 0x1bee <__divsf3_pse+0xaa>
    1be6:	62 1b       	sub	r22, r18
    1be8:	73 0b       	sbc	r23, r19
    1bea:	84 0b       	sbc	r24, r20
    1bec:	ba 0b       	sbc	r27, r26
    1bee:	ee 1f       	adc	r30, r30
    1bf0:	88 f7       	brcc	.-30     	; 0x1bd4 <__divsf3_pse+0x90>
    1bf2:	e0 95       	com	r30
    1bf4:	08 95       	ret

00001bf6 <__fixsfsi>:
    1bf6:	04 d0       	rcall	.+8      	; 0x1c00 <__fixunssfsi>
    1bf8:	68 94       	set
    1bfa:	b1 11       	cpse	r27, r1
    1bfc:	d9 c0       	rjmp	.+434    	; 0x1db0 <__fp_szero>
    1bfe:	08 95       	ret

00001c00 <__fixunssfsi>:
    1c00:	bc d0       	rcall	.+376    	; 0x1d7a <__fp_splitA>
    1c02:	88 f0       	brcs	.+34     	; 0x1c26 <__fixunssfsi+0x26>
    1c04:	9f 57       	subi	r25, 0x7F	; 127
    1c06:	90 f0       	brcs	.+36     	; 0x1c2c <__fixunssfsi+0x2c>
    1c08:	b9 2f       	mov	r27, r25
    1c0a:	99 27       	eor	r25, r25
    1c0c:	b7 51       	subi	r27, 0x17	; 23
    1c0e:	a0 f0       	brcs	.+40     	; 0x1c38 <__fixunssfsi+0x38>
    1c10:	d1 f0       	breq	.+52     	; 0x1c46 <__fixunssfsi+0x46>
    1c12:	66 0f       	add	r22, r22
    1c14:	77 1f       	adc	r23, r23
    1c16:	88 1f       	adc	r24, r24
    1c18:	99 1f       	adc	r25, r25
    1c1a:	1a f0       	brmi	.+6      	; 0x1c22 <__fixunssfsi+0x22>
    1c1c:	ba 95       	dec	r27
    1c1e:	c9 f7       	brne	.-14     	; 0x1c12 <__fixunssfsi+0x12>
    1c20:	12 c0       	rjmp	.+36     	; 0x1c46 <__fixunssfsi+0x46>
    1c22:	b1 30       	cpi	r27, 0x01	; 1
    1c24:	81 f0       	breq	.+32     	; 0x1c46 <__fixunssfsi+0x46>
    1c26:	c3 d0       	rcall	.+390    	; 0x1dae <__fp_zero>
    1c28:	b1 e0       	ldi	r27, 0x01	; 1
    1c2a:	08 95       	ret
    1c2c:	c0 c0       	rjmp	.+384    	; 0x1dae <__fp_zero>
    1c2e:	67 2f       	mov	r22, r23
    1c30:	78 2f       	mov	r23, r24
    1c32:	88 27       	eor	r24, r24
    1c34:	b8 5f       	subi	r27, 0xF8	; 248
    1c36:	39 f0       	breq	.+14     	; 0x1c46 <__fixunssfsi+0x46>
    1c38:	b9 3f       	cpi	r27, 0xF9	; 249
    1c3a:	cc f3       	brlt	.-14     	; 0x1c2e <__fixunssfsi+0x2e>
    1c3c:	86 95       	lsr	r24
    1c3e:	77 95       	ror	r23
    1c40:	67 95       	ror	r22
    1c42:	b3 95       	inc	r27
    1c44:	d9 f7       	brne	.-10     	; 0x1c3c <__fixunssfsi+0x3c>
    1c46:	3e f4       	brtc	.+14     	; 0x1c56 <__fixunssfsi+0x56>
    1c48:	90 95       	com	r25
    1c4a:	80 95       	com	r24
    1c4c:	70 95       	com	r23
    1c4e:	61 95       	neg	r22
    1c50:	7f 4f       	sbci	r23, 0xFF	; 255
    1c52:	8f 4f       	sbci	r24, 0xFF	; 255
    1c54:	9f 4f       	sbci	r25, 0xFF	; 255
    1c56:	08 95       	ret

00001c58 <__floatunsisf>:
    1c58:	e8 94       	clt
    1c5a:	09 c0       	rjmp	.+18     	; 0x1c6e <__floatsisf+0x12>

00001c5c <__floatsisf>:
    1c5c:	97 fb       	bst	r25, 7
    1c5e:	3e f4       	brtc	.+14     	; 0x1c6e <__floatsisf+0x12>
    1c60:	90 95       	com	r25
    1c62:	80 95       	com	r24
    1c64:	70 95       	com	r23
    1c66:	61 95       	neg	r22
    1c68:	7f 4f       	sbci	r23, 0xFF	; 255
    1c6a:	8f 4f       	sbci	r24, 0xFF	; 255
    1c6c:	9f 4f       	sbci	r25, 0xFF	; 255
    1c6e:	99 23       	and	r25, r25
    1c70:	a9 f0       	breq	.+42     	; 0x1c9c <__floatsisf+0x40>
    1c72:	f9 2f       	mov	r31, r25
    1c74:	96 e9       	ldi	r25, 0x96	; 150
    1c76:	bb 27       	eor	r27, r27
    1c78:	93 95       	inc	r25
    1c7a:	f6 95       	lsr	r31
    1c7c:	87 95       	ror	r24
    1c7e:	77 95       	ror	r23
    1c80:	67 95       	ror	r22
    1c82:	b7 95       	ror	r27
    1c84:	f1 11       	cpse	r31, r1
    1c86:	f8 cf       	rjmp	.-16     	; 0x1c78 <__floatsisf+0x1c>
    1c88:	fa f4       	brpl	.+62     	; 0x1cc8 <__floatsisf+0x6c>
    1c8a:	bb 0f       	add	r27, r27
    1c8c:	11 f4       	brne	.+4      	; 0x1c92 <__floatsisf+0x36>
    1c8e:	60 ff       	sbrs	r22, 0
    1c90:	1b c0       	rjmp	.+54     	; 0x1cc8 <__floatsisf+0x6c>
    1c92:	6f 5f       	subi	r22, 0xFF	; 255
    1c94:	7f 4f       	sbci	r23, 0xFF	; 255
    1c96:	8f 4f       	sbci	r24, 0xFF	; 255
    1c98:	9f 4f       	sbci	r25, 0xFF	; 255
    1c9a:	16 c0       	rjmp	.+44     	; 0x1cc8 <__floatsisf+0x6c>
    1c9c:	88 23       	and	r24, r24
    1c9e:	11 f0       	breq	.+4      	; 0x1ca4 <__floatsisf+0x48>
    1ca0:	96 e9       	ldi	r25, 0x96	; 150
    1ca2:	11 c0       	rjmp	.+34     	; 0x1cc6 <__floatsisf+0x6a>
    1ca4:	77 23       	and	r23, r23
    1ca6:	21 f0       	breq	.+8      	; 0x1cb0 <__floatsisf+0x54>
    1ca8:	9e e8       	ldi	r25, 0x8E	; 142
    1caa:	87 2f       	mov	r24, r23
    1cac:	76 2f       	mov	r23, r22
    1cae:	05 c0       	rjmp	.+10     	; 0x1cba <__floatsisf+0x5e>
    1cb0:	66 23       	and	r22, r22
    1cb2:	71 f0       	breq	.+28     	; 0x1cd0 <__floatsisf+0x74>
    1cb4:	96 e8       	ldi	r25, 0x86	; 134
    1cb6:	86 2f       	mov	r24, r22
    1cb8:	70 e0       	ldi	r23, 0x00	; 0
    1cba:	60 e0       	ldi	r22, 0x00	; 0
    1cbc:	2a f0       	brmi	.+10     	; 0x1cc8 <__floatsisf+0x6c>
    1cbe:	9a 95       	dec	r25
    1cc0:	66 0f       	add	r22, r22
    1cc2:	77 1f       	adc	r23, r23
    1cc4:	88 1f       	adc	r24, r24
    1cc6:	da f7       	brpl	.-10     	; 0x1cbe <__floatsisf+0x62>
    1cc8:	88 0f       	add	r24, r24
    1cca:	96 95       	lsr	r25
    1ccc:	87 95       	ror	r24
    1cce:	97 f9       	bld	r25, 7
    1cd0:	08 95       	ret

00001cd2 <__fp_cmp>:
    1cd2:	99 0f       	add	r25, r25
    1cd4:	00 08       	sbc	r0, r0
    1cd6:	55 0f       	add	r21, r21
    1cd8:	aa 0b       	sbc	r26, r26
    1cda:	e0 e8       	ldi	r30, 0x80	; 128
    1cdc:	fe ef       	ldi	r31, 0xFE	; 254
    1cde:	16 16       	cp	r1, r22
    1ce0:	17 06       	cpc	r1, r23
    1ce2:	e8 07       	cpc	r30, r24
    1ce4:	f9 07       	cpc	r31, r25
    1ce6:	c0 f0       	brcs	.+48     	; 0x1d18 <__fp_cmp+0x46>
    1ce8:	12 16       	cp	r1, r18
    1cea:	13 06       	cpc	r1, r19
    1cec:	e4 07       	cpc	r30, r20
    1cee:	f5 07       	cpc	r31, r21
    1cf0:	98 f0       	brcs	.+38     	; 0x1d18 <__fp_cmp+0x46>
    1cf2:	62 1b       	sub	r22, r18
    1cf4:	73 0b       	sbc	r23, r19
    1cf6:	84 0b       	sbc	r24, r20
    1cf8:	95 0b       	sbc	r25, r21
    1cfa:	39 f4       	brne	.+14     	; 0x1d0a <__fp_cmp+0x38>
    1cfc:	0a 26       	eor	r0, r26
    1cfe:	61 f0       	breq	.+24     	; 0x1d18 <__fp_cmp+0x46>
    1d00:	23 2b       	or	r18, r19
    1d02:	24 2b       	or	r18, r20
    1d04:	25 2b       	or	r18, r21
    1d06:	21 f4       	brne	.+8      	; 0x1d10 <__fp_cmp+0x3e>
    1d08:	08 95       	ret
    1d0a:	0a 26       	eor	r0, r26
    1d0c:	09 f4       	brne	.+2      	; 0x1d10 <__fp_cmp+0x3e>
    1d0e:	a1 40       	sbci	r26, 0x01	; 1
    1d10:	a6 95       	lsr	r26
    1d12:	8f ef       	ldi	r24, 0xFF	; 255
    1d14:	81 1d       	adc	r24, r1
    1d16:	81 1d       	adc	r24, r1
    1d18:	08 95       	ret

00001d1a <__fp_inf>:
    1d1a:	97 f9       	bld	r25, 7
    1d1c:	9f 67       	ori	r25, 0x7F	; 127
    1d1e:	80 e8       	ldi	r24, 0x80	; 128
    1d20:	70 e0       	ldi	r23, 0x00	; 0
    1d22:	60 e0       	ldi	r22, 0x00	; 0
    1d24:	08 95       	ret

00001d26 <__fp_nan>:
    1d26:	9f ef       	ldi	r25, 0xFF	; 255
    1d28:	80 ec       	ldi	r24, 0xC0	; 192
    1d2a:	08 95       	ret

00001d2c <__fp_pscA>:
    1d2c:	00 24       	eor	r0, r0
    1d2e:	0a 94       	dec	r0
    1d30:	16 16       	cp	r1, r22
    1d32:	17 06       	cpc	r1, r23
    1d34:	18 06       	cpc	r1, r24
    1d36:	09 06       	cpc	r0, r25
    1d38:	08 95       	ret

00001d3a <__fp_pscB>:
    1d3a:	00 24       	eor	r0, r0
    1d3c:	0a 94       	dec	r0
    1d3e:	12 16       	cp	r1, r18
    1d40:	13 06       	cpc	r1, r19
    1d42:	14 06       	cpc	r1, r20
    1d44:	05 06       	cpc	r0, r21
    1d46:	08 95       	ret

00001d48 <__fp_round>:
    1d48:	09 2e       	mov	r0, r25
    1d4a:	03 94       	inc	r0
    1d4c:	00 0c       	add	r0, r0
    1d4e:	11 f4       	brne	.+4      	; 0x1d54 <__fp_round+0xc>
    1d50:	88 23       	and	r24, r24
    1d52:	52 f0       	brmi	.+20     	; 0x1d68 <__fp_round+0x20>
    1d54:	bb 0f       	add	r27, r27
    1d56:	40 f4       	brcc	.+16     	; 0x1d68 <__fp_round+0x20>
    1d58:	bf 2b       	or	r27, r31
    1d5a:	11 f4       	brne	.+4      	; 0x1d60 <__fp_round+0x18>
    1d5c:	60 ff       	sbrs	r22, 0
    1d5e:	04 c0       	rjmp	.+8      	; 0x1d68 <__fp_round+0x20>
    1d60:	6f 5f       	subi	r22, 0xFF	; 255
    1d62:	7f 4f       	sbci	r23, 0xFF	; 255
    1d64:	8f 4f       	sbci	r24, 0xFF	; 255
    1d66:	9f 4f       	sbci	r25, 0xFF	; 255
    1d68:	08 95       	ret

00001d6a <__fp_split3>:
    1d6a:	57 fd       	sbrc	r21, 7
    1d6c:	90 58       	subi	r25, 0x80	; 128
    1d6e:	44 0f       	add	r20, r20
    1d70:	55 1f       	adc	r21, r21
    1d72:	59 f0       	breq	.+22     	; 0x1d8a <__fp_splitA+0x10>
    1d74:	5f 3f       	cpi	r21, 0xFF	; 255
    1d76:	71 f0       	breq	.+28     	; 0x1d94 <__fp_splitA+0x1a>
    1d78:	47 95       	ror	r20

00001d7a <__fp_splitA>:
    1d7a:	88 0f       	add	r24, r24
    1d7c:	97 fb       	bst	r25, 7
    1d7e:	99 1f       	adc	r25, r25
    1d80:	61 f0       	breq	.+24     	; 0x1d9a <__fp_splitA+0x20>
    1d82:	9f 3f       	cpi	r25, 0xFF	; 255
    1d84:	79 f0       	breq	.+30     	; 0x1da4 <__fp_splitA+0x2a>
    1d86:	87 95       	ror	r24
    1d88:	08 95       	ret
    1d8a:	12 16       	cp	r1, r18
    1d8c:	13 06       	cpc	r1, r19
    1d8e:	14 06       	cpc	r1, r20
    1d90:	55 1f       	adc	r21, r21
    1d92:	f2 cf       	rjmp	.-28     	; 0x1d78 <__fp_split3+0xe>
    1d94:	46 95       	lsr	r20
    1d96:	f1 df       	rcall	.-30     	; 0x1d7a <__fp_splitA>
    1d98:	08 c0       	rjmp	.+16     	; 0x1daa <__fp_splitA+0x30>
    1d9a:	16 16       	cp	r1, r22
    1d9c:	17 06       	cpc	r1, r23
    1d9e:	18 06       	cpc	r1, r24
    1da0:	99 1f       	adc	r25, r25
    1da2:	f1 cf       	rjmp	.-30     	; 0x1d86 <__fp_splitA+0xc>
    1da4:	86 95       	lsr	r24
    1da6:	71 05       	cpc	r23, r1
    1da8:	61 05       	cpc	r22, r1
    1daa:	08 94       	sec
    1dac:	08 95       	ret

00001dae <__fp_zero>:
    1dae:	e8 94       	clt

00001db0 <__fp_szero>:
    1db0:	bb 27       	eor	r27, r27
    1db2:	66 27       	eor	r22, r22
    1db4:	77 27       	eor	r23, r23
    1db6:	cb 01       	movw	r24, r22
    1db8:	97 f9       	bld	r25, 7
    1dba:	08 95       	ret

00001dbc <__gesf2>:
    1dbc:	8a df       	rcall	.-236    	; 0x1cd2 <__fp_cmp>
    1dbe:	08 f4       	brcc	.+2      	; 0x1dc2 <__gesf2+0x6>
    1dc0:	8f ef       	ldi	r24, 0xFF	; 255
    1dc2:	08 95       	ret
    1dc4:	0e f0       	brts	.+2      	; 0x1dc8 <__gesf2+0xc>
    1dc6:	e0 c0       	rjmp	.+448    	; 0x1f88 <__fp_mpack>
    1dc8:	ae cf       	rjmp	.-164    	; 0x1d26 <__fp_nan>
    1dca:	68 94       	set
    1dcc:	a6 cf       	rjmp	.-180    	; 0x1d1a <__fp_inf>

00001dce <log>:
    1dce:	d5 df       	rcall	.-86     	; 0x1d7a <__fp_splitA>
    1dd0:	c8 f3       	brcs	.-14     	; 0x1dc4 <__gesf2+0x8>
    1dd2:	99 23       	and	r25, r25
    1dd4:	d1 f3       	breq	.-12     	; 0x1dca <__gesf2+0xe>
    1dd6:	c6 f3       	brts	.-16     	; 0x1dc8 <__gesf2+0xc>
    1dd8:	df 93       	push	r29
    1dda:	cf 93       	push	r28
    1ddc:	1f 93       	push	r17
    1dde:	0f 93       	push	r16
    1de0:	ff 92       	push	r15
    1de2:	c9 2f       	mov	r28, r25
    1de4:	dd 27       	eor	r29, r29
    1de6:	88 23       	and	r24, r24
    1de8:	2a f0       	brmi	.+10     	; 0x1df4 <log+0x26>
    1dea:	21 97       	sbiw	r28, 0x01	; 1
    1dec:	66 0f       	add	r22, r22
    1dee:	77 1f       	adc	r23, r23
    1df0:	88 1f       	adc	r24, r24
    1df2:	da f7       	brpl	.-10     	; 0x1dea <log+0x1c>
    1df4:	20 e0       	ldi	r18, 0x00	; 0
    1df6:	30 e0       	ldi	r19, 0x00	; 0
    1df8:	40 e8       	ldi	r20, 0x80	; 128
    1dfa:	5f eb       	ldi	r21, 0xBF	; 191
    1dfc:	9f e3       	ldi	r25, 0x3F	; 63
    1dfe:	88 39       	cpi	r24, 0x98	; 152
    1e00:	20 f0       	brcs	.+8      	; 0x1e0a <log+0x3c>
    1e02:	80 3e       	cpi	r24, 0xE0	; 224
    1e04:	30 f0       	brcs	.+12     	; 0x1e12 <log+0x44>
    1e06:	21 96       	adiw	r28, 0x01	; 1
    1e08:	8f 77       	andi	r24, 0x7F	; 127
    1e0a:	25 de       	rcall	.-950    	; 0x1a56 <__addsf3>
    1e0c:	e8 e6       	ldi	r30, 0x68	; 104
    1e0e:	f0 e0       	ldi	r31, 0x00	; 0
    1e10:	03 c0       	rjmp	.+6      	; 0x1e18 <log+0x4a>
    1e12:	21 de       	rcall	.-958    	; 0x1a56 <__addsf3>
    1e14:	e5 e9       	ldi	r30, 0x95	; 149
    1e16:	f0 e0       	ldi	r31, 0x00	; 0
    1e18:	c5 d0       	rcall	.+394    	; 0x1fa4 <__fp_powser>
    1e1a:	8b 01       	movw	r16, r22
    1e1c:	be 01       	movw	r22, r28
    1e1e:	ec 01       	movw	r28, r24
    1e20:	fb 2e       	mov	r15, r27
    1e22:	6f 57       	subi	r22, 0x7F	; 127
    1e24:	71 09       	sbc	r23, r1
    1e26:	75 95       	asr	r23
    1e28:	77 1f       	adc	r23, r23
    1e2a:	88 0b       	sbc	r24, r24
    1e2c:	99 0b       	sbc	r25, r25
    1e2e:	16 df       	rcall	.-468    	; 0x1c5c <__floatsisf>
    1e30:	28 e1       	ldi	r18, 0x18	; 24
    1e32:	32 e7       	ldi	r19, 0x72	; 114
    1e34:	41 e3       	ldi	r20, 0x31	; 49
    1e36:	5f e3       	ldi	r21, 0x3F	; 63
    1e38:	50 d0       	rcall	.+160    	; 0x1eda <__mulsf3x>
    1e3a:	af 2d       	mov	r26, r15
    1e3c:	98 01       	movw	r18, r16
    1e3e:	ae 01       	movw	r20, r28
    1e40:	ff 90       	pop	r15
    1e42:	0f 91       	pop	r16
    1e44:	1f 91       	pop	r17
    1e46:	cf 91       	pop	r28
    1e48:	df 91       	pop	r29
    1e4a:	16 de       	rcall	.-980    	; 0x1a78 <__addsf3x>
    1e4c:	7d cf       	rjmp	.-262    	; 0x1d48 <__fp_round>

00001e4e <lrint>:
    1e4e:	95 df       	rcall	.-214    	; 0x1d7a <__fp_splitA>
    1e50:	a8 f1       	brcs	.+106    	; 0x1ebc <lrint+0x6e>
    1e52:	9e 57       	subi	r25, 0x7E	; 126
    1e54:	a8 f1       	brcs	.+106    	; 0x1ec0 <lrint+0x72>
    1e56:	98 51       	subi	r25, 0x18	; 24
    1e58:	60 f0       	brcs	.+24     	; 0x1e72 <lrint+0x24>
    1e5a:	39 f1       	breq	.+78     	; 0x1eaa <lrint+0x5c>
    1e5c:	98 30       	cpi	r25, 0x08	; 8
    1e5e:	70 f5       	brcc	.+92     	; 0x1ebc <lrint+0x6e>
    1e60:	09 2e       	mov	r0, r25
    1e62:	99 27       	eor	r25, r25
    1e64:	66 0f       	add	r22, r22
    1e66:	77 1f       	adc	r23, r23
    1e68:	88 1f       	adc	r24, r24
    1e6a:	99 1f       	adc	r25, r25
    1e6c:	0a 94       	dec	r0
    1e6e:	d1 f7       	brne	.-12     	; 0x1e64 <lrint+0x16>
    1e70:	1c c0       	rjmp	.+56     	; 0x1eaa <lrint+0x5c>
    1e72:	bb 27       	eor	r27, r27
    1e74:	99 3f       	cpi	r25, 0xF9	; 249
    1e76:	4c f4       	brge	.+18     	; 0x1e8a <lrint+0x3c>
    1e78:	b1 11       	cpse	r27, r1
    1e7a:	b1 e0       	ldi	r27, 0x01	; 1
    1e7c:	b6 2b       	or	r27, r22
    1e7e:	67 2f       	mov	r22, r23
    1e80:	78 2f       	mov	r23, r24
    1e82:	88 27       	eor	r24, r24
    1e84:	98 5f       	subi	r25, 0xF8	; 248
    1e86:	b1 f7       	brne	.-20     	; 0x1e74 <lrint+0x26>
    1e88:	08 c0       	rjmp	.+16     	; 0x1e9a <lrint+0x4c>
    1e8a:	86 95       	lsr	r24
    1e8c:	77 95       	ror	r23
    1e8e:	67 95       	ror	r22
    1e90:	b7 95       	ror	r27
    1e92:	08 f4       	brcc	.+2      	; 0x1e96 <lrint+0x48>
    1e94:	b1 60       	ori	r27, 0x01	; 1
    1e96:	93 95       	inc	r25
    1e98:	c1 f7       	brne	.-16     	; 0x1e8a <lrint+0x3c>
    1e9a:	bb 0f       	add	r27, r27
    1e9c:	30 f4       	brcc	.+12     	; 0x1eaa <lrint+0x5c>
    1e9e:	11 f4       	brne	.+4      	; 0x1ea4 <lrint+0x56>
    1ea0:	60 ff       	sbrs	r22, 0
    1ea2:	03 c0       	rjmp	.+6      	; 0x1eaa <lrint+0x5c>
    1ea4:	6f 5f       	subi	r22, 0xFF	; 255
    1ea6:	7f 4f       	sbci	r23, 0xFF	; 255
    1ea8:	8f 4f       	sbci	r24, 0xFF	; 255
    1eaa:	3e f4       	brtc	.+14     	; 0x1eba <lrint+0x6c>
    1eac:	90 95       	com	r25
    1eae:	80 95       	com	r24
    1eb0:	70 95       	com	r23
    1eb2:	61 95       	neg	r22
    1eb4:	7f 4f       	sbci	r23, 0xFF	; 255
    1eb6:	8f 4f       	sbci	r24, 0xFF	; 255
    1eb8:	9f 4f       	sbci	r25, 0xFF	; 255
    1eba:	08 95       	ret
    1ebc:	68 94       	set
    1ebe:	78 cf       	rjmp	.-272    	; 0x1db0 <__fp_szero>
    1ec0:	76 cf       	rjmp	.-276    	; 0x1dae <__fp_zero>

00001ec2 <__mulsf3>:
    1ec2:	0b d0       	rcall	.+22     	; 0x1eda <__mulsf3x>
    1ec4:	41 cf       	rjmp	.-382    	; 0x1d48 <__fp_round>
    1ec6:	32 df       	rcall	.-412    	; 0x1d2c <__fp_pscA>
    1ec8:	28 f0       	brcs	.+10     	; 0x1ed4 <__mulsf3+0x12>
    1eca:	37 df       	rcall	.-402    	; 0x1d3a <__fp_pscB>
    1ecc:	18 f0       	brcs	.+6      	; 0x1ed4 <__mulsf3+0x12>
    1ece:	95 23       	and	r25, r21
    1ed0:	09 f0       	breq	.+2      	; 0x1ed4 <__mulsf3+0x12>
    1ed2:	23 cf       	rjmp	.-442    	; 0x1d1a <__fp_inf>
    1ed4:	28 cf       	rjmp	.-432    	; 0x1d26 <__fp_nan>
    1ed6:	11 24       	eor	r1, r1
    1ed8:	6b cf       	rjmp	.-298    	; 0x1db0 <__fp_szero>

00001eda <__mulsf3x>:
    1eda:	47 df       	rcall	.-370    	; 0x1d6a <__fp_split3>
    1edc:	a0 f3       	brcs	.-24     	; 0x1ec6 <__mulsf3+0x4>

00001ede <__mulsf3_pse>:
    1ede:	95 9f       	mul	r25, r21
    1ee0:	d1 f3       	breq	.-12     	; 0x1ed6 <__mulsf3+0x14>
    1ee2:	95 0f       	add	r25, r21
    1ee4:	50 e0       	ldi	r21, 0x00	; 0
    1ee6:	55 1f       	adc	r21, r21
    1ee8:	62 9f       	mul	r22, r18
    1eea:	f0 01       	movw	r30, r0
    1eec:	72 9f       	mul	r23, r18
    1eee:	bb 27       	eor	r27, r27
    1ef0:	f0 0d       	add	r31, r0
    1ef2:	b1 1d       	adc	r27, r1
    1ef4:	63 9f       	mul	r22, r19
    1ef6:	aa 27       	eor	r26, r26
    1ef8:	f0 0d       	add	r31, r0
    1efa:	b1 1d       	adc	r27, r1
    1efc:	aa 1f       	adc	r26, r26
    1efe:	64 9f       	mul	r22, r20
    1f00:	66 27       	eor	r22, r22
    1f02:	b0 0d       	add	r27, r0
    1f04:	a1 1d       	adc	r26, r1
    1f06:	66 1f       	adc	r22, r22
    1f08:	82 9f       	mul	r24, r18
    1f0a:	22 27       	eor	r18, r18
    1f0c:	b0 0d       	add	r27, r0
    1f0e:	a1 1d       	adc	r26, r1
    1f10:	62 1f       	adc	r22, r18
    1f12:	73 9f       	mul	r23, r19
    1f14:	b0 0d       	add	r27, r0
    1f16:	a1 1d       	adc	r26, r1
    1f18:	62 1f       	adc	r22, r18
    1f1a:	83 9f       	mul	r24, r19
    1f1c:	a0 0d       	add	r26, r0
    1f1e:	61 1d       	adc	r22, r1
    1f20:	22 1f       	adc	r18, r18
    1f22:	74 9f       	mul	r23, r20
    1f24:	33 27       	eor	r19, r19
    1f26:	a0 0d       	add	r26, r0
    1f28:	61 1d       	adc	r22, r1
    1f2a:	23 1f       	adc	r18, r19
    1f2c:	84 9f       	mul	r24, r20
    1f2e:	60 0d       	add	r22, r0
    1f30:	21 1d       	adc	r18, r1
    1f32:	82 2f       	mov	r24, r18
    1f34:	76 2f       	mov	r23, r22
    1f36:	6a 2f       	mov	r22, r26
    1f38:	11 24       	eor	r1, r1
    1f3a:	9f 57       	subi	r25, 0x7F	; 127
    1f3c:	50 40       	sbci	r21, 0x00	; 0
    1f3e:	8a f0       	brmi	.+34     	; 0x1f62 <__mulsf3_pse+0x84>
    1f40:	e1 f0       	breq	.+56     	; 0x1f7a <__mulsf3_pse+0x9c>
    1f42:	88 23       	and	r24, r24
    1f44:	4a f0       	brmi	.+18     	; 0x1f58 <__mulsf3_pse+0x7a>
    1f46:	ee 0f       	add	r30, r30
    1f48:	ff 1f       	adc	r31, r31
    1f4a:	bb 1f       	adc	r27, r27
    1f4c:	66 1f       	adc	r22, r22
    1f4e:	77 1f       	adc	r23, r23
    1f50:	88 1f       	adc	r24, r24
    1f52:	91 50       	subi	r25, 0x01	; 1
    1f54:	50 40       	sbci	r21, 0x00	; 0
    1f56:	a9 f7       	brne	.-22     	; 0x1f42 <__mulsf3_pse+0x64>
    1f58:	9e 3f       	cpi	r25, 0xFE	; 254
    1f5a:	51 05       	cpc	r21, r1
    1f5c:	70 f0       	brcs	.+28     	; 0x1f7a <__mulsf3_pse+0x9c>
    1f5e:	dd ce       	rjmp	.-582    	; 0x1d1a <__fp_inf>
    1f60:	27 cf       	rjmp	.-434    	; 0x1db0 <__fp_szero>
    1f62:	5f 3f       	cpi	r21, 0xFF	; 255
    1f64:	ec f3       	brlt	.-6      	; 0x1f60 <__mulsf3_pse+0x82>
    1f66:	98 3e       	cpi	r25, 0xE8	; 232
    1f68:	dc f3       	brlt	.-10     	; 0x1f60 <__mulsf3_pse+0x82>
    1f6a:	86 95       	lsr	r24
    1f6c:	77 95       	ror	r23
    1f6e:	67 95       	ror	r22
    1f70:	b7 95       	ror	r27
    1f72:	f7 95       	ror	r31
    1f74:	e7 95       	ror	r30
    1f76:	9f 5f       	subi	r25, 0xFF	; 255
    1f78:	c1 f7       	brne	.-16     	; 0x1f6a <__mulsf3_pse+0x8c>
    1f7a:	fe 2b       	or	r31, r30
    1f7c:	88 0f       	add	r24, r24
    1f7e:	91 1d       	adc	r25, r1
    1f80:	96 95       	lsr	r25
    1f82:	87 95       	ror	r24
    1f84:	97 f9       	bld	r25, 7
    1f86:	08 95       	ret

00001f88 <__fp_mpack>:
    1f88:	9f 3f       	cpi	r25, 0xFF	; 255
    1f8a:	31 f0       	breq	.+12     	; 0x1f98 <__fp_mpack_finite+0xc>

00001f8c <__fp_mpack_finite>:
    1f8c:	91 50       	subi	r25, 0x01	; 1
    1f8e:	20 f4       	brcc	.+8      	; 0x1f98 <__fp_mpack_finite+0xc>
    1f90:	87 95       	ror	r24
    1f92:	77 95       	ror	r23
    1f94:	67 95       	ror	r22
    1f96:	b7 95       	ror	r27
    1f98:	88 0f       	add	r24, r24
    1f9a:	91 1d       	adc	r25, r1
    1f9c:	96 95       	lsr	r25
    1f9e:	87 95       	ror	r24
    1fa0:	97 f9       	bld	r25, 7
    1fa2:	08 95       	ret

00001fa4 <__fp_powser>:
    1fa4:	df 93       	push	r29
    1fa6:	cf 93       	push	r28
    1fa8:	1f 93       	push	r17
    1faa:	0f 93       	push	r16
    1fac:	ff 92       	push	r15
    1fae:	ef 92       	push	r14
    1fb0:	df 92       	push	r13
    1fb2:	7b 01       	movw	r14, r22
    1fb4:	8c 01       	movw	r16, r24
    1fb6:	68 94       	set
    1fb8:	05 c0       	rjmp	.+10     	; 0x1fc4 <__fp_powser+0x20>
    1fba:	da 2e       	mov	r13, r26
    1fbc:	ef 01       	movw	r28, r30
    1fbe:	8d df       	rcall	.-230    	; 0x1eda <__mulsf3x>
    1fc0:	fe 01       	movw	r30, r28
    1fc2:	e8 94       	clt
    1fc4:	a5 91       	lpm	r26, Z+
    1fc6:	25 91       	lpm	r18, Z+
    1fc8:	35 91       	lpm	r19, Z+
    1fca:	45 91       	lpm	r20, Z+
    1fcc:	55 91       	lpm	r21, Z+
    1fce:	ae f3       	brts	.-22     	; 0x1fba <__fp_powser+0x16>
    1fd0:	ef 01       	movw	r28, r30
    1fd2:	52 dd       	rcall	.-1372   	; 0x1a78 <__addsf3x>
    1fd4:	fe 01       	movw	r30, r28
    1fd6:	97 01       	movw	r18, r14
    1fd8:	a8 01       	movw	r20, r16
    1fda:	da 94       	dec	r13
    1fdc:	79 f7       	brne	.-34     	; 0x1fbc <__fp_powser+0x18>
    1fde:	df 90       	pop	r13
    1fe0:	ef 90       	pop	r14
    1fe2:	ff 90       	pop	r15
    1fe4:	0f 91       	pop	r16
    1fe6:	1f 91       	pop	r17
    1fe8:	cf 91       	pop	r28
    1fea:	df 91       	pop	r29
    1fec:	08 95       	ret

00001fee <__divmodhi4>:
    1fee:	97 fb       	bst	r25, 7
    1ff0:	09 2e       	mov	r0, r25
    1ff2:	07 26       	eor	r0, r23
    1ff4:	0a d0       	rcall	.+20     	; 0x200a <__divmodhi4_neg1>
    1ff6:	77 fd       	sbrc	r23, 7
    1ff8:	04 d0       	rcall	.+8      	; 0x2002 <__divmodhi4_neg2>
    1ffa:	49 d0       	rcall	.+146    	; 0x208e <__udivmodhi4>
    1ffc:	06 d0       	rcall	.+12     	; 0x200a <__divmodhi4_neg1>
    1ffe:	00 20       	and	r0, r0
    2000:	1a f4       	brpl	.+6      	; 0x2008 <__divmodhi4_exit>

00002002 <__divmodhi4_neg2>:
    2002:	70 95       	com	r23
    2004:	61 95       	neg	r22
    2006:	7f 4f       	sbci	r23, 0xFF	; 255

00002008 <__divmodhi4_exit>:
    2008:	08 95       	ret

0000200a <__divmodhi4_neg1>:
    200a:	f6 f7       	brtc	.-4      	; 0x2008 <__divmodhi4_exit>
    200c:	90 95       	com	r25
    200e:	81 95       	neg	r24
    2010:	9f 4f       	sbci	r25, 0xFF	; 255
    2012:	08 95       	ret

00002014 <__udivmodsi4>:
    2014:	a1 e2       	ldi	r26, 0x21	; 33
    2016:	1a 2e       	mov	r1, r26
    2018:	aa 1b       	sub	r26, r26
    201a:	bb 1b       	sub	r27, r27
    201c:	fd 01       	movw	r30, r26
    201e:	0d c0       	rjmp	.+26     	; 0x203a <__udivmodsi4_ep>

00002020 <__udivmodsi4_loop>:
    2020:	aa 1f       	adc	r26, r26
    2022:	bb 1f       	adc	r27, r27
    2024:	ee 1f       	adc	r30, r30
    2026:	ff 1f       	adc	r31, r31
    2028:	a2 17       	cp	r26, r18
    202a:	b3 07       	cpc	r27, r19
    202c:	e4 07       	cpc	r30, r20
    202e:	f5 07       	cpc	r31, r21
    2030:	20 f0       	brcs	.+8      	; 0x203a <__udivmodsi4_ep>
    2032:	a2 1b       	sub	r26, r18
    2034:	b3 0b       	sbc	r27, r19
    2036:	e4 0b       	sbc	r30, r20
    2038:	f5 0b       	sbc	r31, r21

0000203a <__udivmodsi4_ep>:
    203a:	66 1f       	adc	r22, r22
    203c:	77 1f       	adc	r23, r23
    203e:	88 1f       	adc	r24, r24
    2040:	99 1f       	adc	r25, r25
    2042:	1a 94       	dec	r1
    2044:	69 f7       	brne	.-38     	; 0x2020 <__udivmodsi4_loop>
    2046:	60 95       	com	r22
    2048:	70 95       	com	r23
    204a:	80 95       	com	r24
    204c:	90 95       	com	r25
    204e:	9b 01       	movw	r18, r22
    2050:	ac 01       	movw	r20, r24
    2052:	bd 01       	movw	r22, r26
    2054:	cf 01       	movw	r24, r30
    2056:	08 95       	ret

00002058 <__divmodsi4>:
    2058:	97 fb       	bst	r25, 7
    205a:	09 2e       	mov	r0, r25
    205c:	05 26       	eor	r0, r21
    205e:	0e d0       	rcall	.+28     	; 0x207c <__divmodsi4_neg1>
    2060:	57 fd       	sbrc	r21, 7
    2062:	04 d0       	rcall	.+8      	; 0x206c <__divmodsi4_neg2>
    2064:	d7 df       	rcall	.-82     	; 0x2014 <__udivmodsi4>
    2066:	0a d0       	rcall	.+20     	; 0x207c <__divmodsi4_neg1>
    2068:	00 1c       	adc	r0, r0
    206a:	38 f4       	brcc	.+14     	; 0x207a <__divmodsi4_exit>

0000206c <__divmodsi4_neg2>:
    206c:	50 95       	com	r21
    206e:	40 95       	com	r20
    2070:	30 95       	com	r19
    2072:	21 95       	neg	r18
    2074:	3f 4f       	sbci	r19, 0xFF	; 255
    2076:	4f 4f       	sbci	r20, 0xFF	; 255
    2078:	5f 4f       	sbci	r21, 0xFF	; 255

0000207a <__divmodsi4_exit>:
    207a:	08 95       	ret

0000207c <__divmodsi4_neg1>:
    207c:	f6 f7       	brtc	.-4      	; 0x207a <__divmodsi4_exit>
    207e:	90 95       	com	r25
    2080:	80 95       	com	r24
    2082:	70 95       	com	r23
    2084:	61 95       	neg	r22
    2086:	7f 4f       	sbci	r23, 0xFF	; 255
    2088:	8f 4f       	sbci	r24, 0xFF	; 255
    208a:	9f 4f       	sbci	r25, 0xFF	; 255
    208c:	08 95       	ret

0000208e <__udivmodhi4>:
    208e:	aa 1b       	sub	r26, r26
    2090:	bb 1b       	sub	r27, r27
    2092:	51 e1       	ldi	r21, 0x11	; 17
    2094:	07 c0       	rjmp	.+14     	; 0x20a4 <__udivmodhi4_ep>

00002096 <__udivmodhi4_loop>:
    2096:	aa 1f       	adc	r26, r26
    2098:	bb 1f       	adc	r27, r27
    209a:	a6 17       	cp	r26, r22
    209c:	b7 07       	cpc	r27, r23
    209e:	10 f0       	brcs	.+4      	; 0x20a4 <__udivmodhi4_ep>
    20a0:	a6 1b       	sub	r26, r22
    20a2:	b7 0b       	sbc	r27, r23

000020a4 <__udivmodhi4_ep>:
    20a4:	88 1f       	adc	r24, r24
    20a6:	99 1f       	adc	r25, r25
    20a8:	5a 95       	dec	r21
    20aa:	a9 f7       	brne	.-22     	; 0x2096 <__udivmodhi4_loop>
    20ac:	80 95       	com	r24
    20ae:	90 95       	com	r25
    20b0:	bc 01       	movw	r22, r24
    20b2:	cd 01       	movw	r24, r26
    20b4:	08 95       	ret

000020b6 <dtostrf>:
    20b6:	ef 92       	push	r14
    20b8:	0f 93       	push	r16
    20ba:	1f 93       	push	r17
    20bc:	cf 93       	push	r28
    20be:	32 2f       	mov	r19, r18
    20c0:	c0 2f       	mov	r28, r16
    20c2:	47 ff       	sbrs	r20, 7
    20c4:	02 c0       	rjmp	.+4      	; 0x20ca <dtostrf+0x14>
    20c6:	a4 e1       	ldi	r26, 0x14	; 20
    20c8:	01 c0       	rjmp	.+2      	; 0x20cc <dtostrf+0x16>
    20ca:	a4 e0       	ldi	r26, 0x04	; 4
    20cc:	e4 2f       	mov	r30, r20
    20ce:	ff 27       	eor	r31, r31
    20d0:	e7 fd       	sbrc	r30, 7
    20d2:	f0 95       	com	r31
    20d4:	f7 ff       	sbrs	r31, 7
    20d6:	03 c0       	rjmp	.+6      	; 0x20de <dtostrf+0x28>
    20d8:	f0 95       	com	r31
    20da:	e1 95       	neg	r30
    20dc:	ff 4f       	sbci	r31, 0xFF	; 255
    20de:	4c 2f       	mov	r20, r28
    20e0:	51 2f       	mov	r21, r17
    20e2:	2e 2f       	mov	r18, r30
    20e4:	03 2f       	mov	r16, r19
    20e6:	ea 2e       	mov	r14, r26
    20e8:	0e 94 7d 12 	call	0x24fa	; 0x24fa <dtoa_prf>
    20ec:	8c 2f       	mov	r24, r28
    20ee:	91 2f       	mov	r25, r17
    20f0:	cf 91       	pop	r28
    20f2:	1f 91       	pop	r17
    20f4:	0f 91       	pop	r16
    20f6:	ef 90       	pop	r14
    20f8:	08 95       	ret

000020fa <sprintf>:
    20fa:	ae e0       	ldi	r26, 0x0E	; 14
    20fc:	b0 e0       	ldi	r27, 0x00	; 0
    20fe:	e3 e8       	ldi	r30, 0x83	; 131
    2100:	f0 e1       	ldi	r31, 0x10	; 16
    2102:	0c 94 5b 15 	jmp	0x2ab6	; 0x2ab6 <__prologue_saves__+0x1c>
    2106:	0d 89       	ldd	r16, Y+21	; 0x15
    2108:	1e 89       	ldd	r17, Y+22	; 0x16
    210a:	86 e0       	ldi	r24, 0x06	; 6
    210c:	8c 83       	std	Y+4, r24	; 0x04
    210e:	1a 83       	std	Y+2, r17	; 0x02
    2110:	09 83       	std	Y+1, r16	; 0x01
    2112:	8f ef       	ldi	r24, 0xFF	; 255
    2114:	9f e7       	ldi	r25, 0x7F	; 127
    2116:	9e 83       	std	Y+6, r25	; 0x06
    2118:	8d 83       	std	Y+5, r24	; 0x05
    211a:	ae 01       	movw	r20, r28
    211c:	47 5e       	subi	r20, 0xE7	; 231
    211e:	5f 4f       	sbci	r21, 0xFF	; 255
    2120:	ce 01       	movw	r24, r28
    2122:	01 96       	adiw	r24, 0x01	; 1
    2124:	6f 89       	ldd	r22, Y+23	; 0x17
    2126:	78 8d       	ldd	r23, Y+24	; 0x18
    2128:	0e 94 9f 10 	call	0x213e	; 0x213e <vfprintf>
    212c:	ef 81       	ldd	r30, Y+7	; 0x07
    212e:	f8 85       	ldd	r31, Y+8	; 0x08
    2130:	e0 0f       	add	r30, r16
    2132:	f1 1f       	adc	r31, r17
    2134:	10 82       	st	Z, r1
    2136:	2e 96       	adiw	r28, 0x0e	; 14
    2138:	e4 e0       	ldi	r30, 0x04	; 4
    213a:	0c 94 77 15 	jmp	0x2aee	; 0x2aee <__epilogue_restores__+0x1c>

0000213e <vfprintf>:
    213e:	ad e0       	ldi	r26, 0x0D	; 13
    2140:	b0 e0       	ldi	r27, 0x00	; 0
    2142:	e5 ea       	ldi	r30, 0xA5	; 165
    2144:	f0 e1       	ldi	r31, 0x10	; 16
    2146:	0c 94 4d 15 	jmp	0x2a9a	; 0x2a9a <__prologue_saves__>
    214a:	3c 01       	movw	r6, r24
    214c:	7d 87       	std	Y+13, r23	; 0x0d
    214e:	6c 87       	std	Y+12, r22	; 0x0c
    2150:	5a 01       	movw	r10, r20
    2152:	fc 01       	movw	r30, r24
    2154:	17 82       	std	Z+7, r1	; 0x07
    2156:	16 82       	std	Z+6, r1	; 0x06
    2158:	83 81       	ldd	r24, Z+3	; 0x03
    215a:	81 ff       	sbrs	r24, 1
    215c:	c8 c1       	rjmp	.+912    	; 0x24ee <vfprintf+0x3b0>
    215e:	2e 01       	movw	r4, r28
    2160:	08 94       	sec
    2162:	41 1c       	adc	r4, r1
    2164:	51 1c       	adc	r5, r1
    2166:	f3 01       	movw	r30, r6
    2168:	93 81       	ldd	r25, Z+3	; 0x03
    216a:	ec 85       	ldd	r30, Y+12	; 0x0c
    216c:	fd 85       	ldd	r31, Y+13	; 0x0d
    216e:	93 fd       	sbrc	r25, 3
    2170:	85 91       	lpm	r24, Z+
    2172:	93 ff       	sbrs	r25, 3
    2174:	81 91       	ld	r24, Z+
    2176:	fd 87       	std	Y+13, r31	; 0x0d
    2178:	ec 87       	std	Y+12, r30	; 0x0c
    217a:	88 23       	and	r24, r24
    217c:	09 f4       	brne	.+2      	; 0x2180 <vfprintf+0x42>
    217e:	b3 c1       	rjmp	.+870    	; 0x24e6 <vfprintf+0x3a8>
    2180:	85 32       	cpi	r24, 0x25	; 37
    2182:	41 f4       	brne	.+16     	; 0x2194 <vfprintf+0x56>
    2184:	93 fd       	sbrc	r25, 3
    2186:	85 91       	lpm	r24, Z+
    2188:	93 ff       	sbrs	r25, 3
    218a:	81 91       	ld	r24, Z+
    218c:	fd 87       	std	Y+13, r31	; 0x0d
    218e:	ec 87       	std	Y+12, r30	; 0x0c
    2190:	85 32       	cpi	r24, 0x25	; 37
    2192:	29 f4       	brne	.+10     	; 0x219e <vfprintf+0x60>
    2194:	90 e0       	ldi	r25, 0x00	; 0
    2196:	b3 01       	movw	r22, r6
    2198:	0e 94 c3 14 	call	0x2986	; 0x2986 <fputc>
    219c:	e4 cf       	rjmp	.-56     	; 0x2166 <vfprintf+0x28>
    219e:	ff 24       	eor	r15, r15
    21a0:	ee 24       	eor	r14, r14
    21a2:	10 e0       	ldi	r17, 0x00	; 0
    21a4:	10 32       	cpi	r17, 0x20	; 32
    21a6:	b0 f4       	brcc	.+44     	; 0x21d4 <vfprintf+0x96>
    21a8:	8b 32       	cpi	r24, 0x2B	; 43
    21aa:	69 f0       	breq	.+26     	; 0x21c6 <vfprintf+0x88>
    21ac:	8c 32       	cpi	r24, 0x2C	; 44
    21ae:	28 f4       	brcc	.+10     	; 0x21ba <vfprintf+0x7c>
    21b0:	80 32       	cpi	r24, 0x20	; 32
    21b2:	51 f0       	breq	.+20     	; 0x21c8 <vfprintf+0x8a>
    21b4:	83 32       	cpi	r24, 0x23	; 35
    21b6:	71 f4       	brne	.+28     	; 0x21d4 <vfprintf+0x96>
    21b8:	0b c0       	rjmp	.+22     	; 0x21d0 <vfprintf+0x92>
    21ba:	8d 32       	cpi	r24, 0x2D	; 45
    21bc:	39 f0       	breq	.+14     	; 0x21cc <vfprintf+0x8e>
    21be:	80 33       	cpi	r24, 0x30	; 48
    21c0:	49 f4       	brne	.+18     	; 0x21d4 <vfprintf+0x96>
    21c2:	11 60       	ori	r17, 0x01	; 1
    21c4:	2c c0       	rjmp	.+88     	; 0x221e <vfprintf+0xe0>
    21c6:	12 60       	ori	r17, 0x02	; 2
    21c8:	14 60       	ori	r17, 0x04	; 4
    21ca:	29 c0       	rjmp	.+82     	; 0x221e <vfprintf+0xe0>
    21cc:	18 60       	ori	r17, 0x08	; 8
    21ce:	27 c0       	rjmp	.+78     	; 0x221e <vfprintf+0xe0>
    21d0:	10 61       	ori	r17, 0x10	; 16
    21d2:	25 c0       	rjmp	.+74     	; 0x221e <vfprintf+0xe0>
    21d4:	17 fd       	sbrc	r17, 7
    21d6:	2e c0       	rjmp	.+92     	; 0x2234 <vfprintf+0xf6>
    21d8:	28 2f       	mov	r18, r24
    21da:	20 53       	subi	r18, 0x30	; 48
    21dc:	2a 30       	cpi	r18, 0x0A	; 10
    21de:	98 f4       	brcc	.+38     	; 0x2206 <vfprintf+0xc8>
    21e0:	16 ff       	sbrs	r17, 6
    21e2:	08 c0       	rjmp	.+16     	; 0x21f4 <vfprintf+0xb6>
    21e4:	8f 2d       	mov	r24, r15
    21e6:	88 0f       	add	r24, r24
    21e8:	f8 2e       	mov	r15, r24
    21ea:	ff 0c       	add	r15, r15
    21ec:	ff 0c       	add	r15, r15
    21ee:	f8 0e       	add	r15, r24
    21f0:	f2 0e       	add	r15, r18
    21f2:	15 c0       	rjmp	.+42     	; 0x221e <vfprintf+0xe0>
    21f4:	8e 2d       	mov	r24, r14
    21f6:	88 0f       	add	r24, r24
    21f8:	e8 2e       	mov	r14, r24
    21fa:	ee 0c       	add	r14, r14
    21fc:	ee 0c       	add	r14, r14
    21fe:	e8 0e       	add	r14, r24
    2200:	e2 0e       	add	r14, r18
    2202:	10 62       	ori	r17, 0x20	; 32
    2204:	0c c0       	rjmp	.+24     	; 0x221e <vfprintf+0xe0>
    2206:	8e 32       	cpi	r24, 0x2E	; 46
    2208:	21 f4       	brne	.+8      	; 0x2212 <vfprintf+0xd4>
    220a:	16 fd       	sbrc	r17, 6
    220c:	6c c1       	rjmp	.+728    	; 0x24e6 <vfprintf+0x3a8>
    220e:	10 64       	ori	r17, 0x40	; 64
    2210:	06 c0       	rjmp	.+12     	; 0x221e <vfprintf+0xe0>
    2212:	8c 36       	cpi	r24, 0x6C	; 108
    2214:	11 f4       	brne	.+4      	; 0x221a <vfprintf+0xdc>
    2216:	10 68       	ori	r17, 0x80	; 128
    2218:	02 c0       	rjmp	.+4      	; 0x221e <vfprintf+0xe0>
    221a:	88 36       	cpi	r24, 0x68	; 104
    221c:	59 f4       	brne	.+22     	; 0x2234 <vfprintf+0xf6>
    221e:	ec 85       	ldd	r30, Y+12	; 0x0c
    2220:	fd 85       	ldd	r31, Y+13	; 0x0d
    2222:	93 fd       	sbrc	r25, 3
    2224:	85 91       	lpm	r24, Z+
    2226:	93 ff       	sbrs	r25, 3
    2228:	81 91       	ld	r24, Z+
    222a:	fd 87       	std	Y+13, r31	; 0x0d
    222c:	ec 87       	std	Y+12, r30	; 0x0c
    222e:	88 23       	and	r24, r24
    2230:	09 f0       	breq	.+2      	; 0x2234 <vfprintf+0xf6>
    2232:	b8 cf       	rjmp	.-144    	; 0x21a4 <vfprintf+0x66>
    2234:	98 2f       	mov	r25, r24
    2236:	95 54       	subi	r25, 0x45	; 69
    2238:	93 30       	cpi	r25, 0x03	; 3
    223a:	18 f0       	brcs	.+6      	; 0x2242 <vfprintf+0x104>
    223c:	90 52       	subi	r25, 0x20	; 32
    223e:	93 30       	cpi	r25, 0x03	; 3
    2240:	38 f4       	brcc	.+14     	; 0x2250 <vfprintf+0x112>
    2242:	24 e0       	ldi	r18, 0x04	; 4
    2244:	30 e0       	ldi	r19, 0x00	; 0
    2246:	a2 0e       	add	r10, r18
    2248:	b3 1e       	adc	r11, r19
    224a:	3f e3       	ldi	r19, 0x3F	; 63
    224c:	39 83       	std	Y+1, r19	; 0x01
    224e:	0f c0       	rjmp	.+30     	; 0x226e <vfprintf+0x130>
    2250:	83 36       	cpi	r24, 0x63	; 99
    2252:	31 f0       	breq	.+12     	; 0x2260 <vfprintf+0x122>
    2254:	83 37       	cpi	r24, 0x73	; 115
    2256:	81 f0       	breq	.+32     	; 0x2278 <vfprintf+0x13a>
    2258:	83 35       	cpi	r24, 0x53	; 83
    225a:	09 f0       	breq	.+2      	; 0x225e <vfprintf+0x120>
    225c:	5a c0       	rjmp	.+180    	; 0x2312 <vfprintf+0x1d4>
    225e:	22 c0       	rjmp	.+68     	; 0x22a4 <vfprintf+0x166>
    2260:	f5 01       	movw	r30, r10
    2262:	80 81       	ld	r24, Z
    2264:	89 83       	std	Y+1, r24	; 0x01
    2266:	22 e0       	ldi	r18, 0x02	; 2
    2268:	30 e0       	ldi	r19, 0x00	; 0
    226a:	a2 0e       	add	r10, r18
    226c:	b3 1e       	adc	r11, r19
    226e:	21 e0       	ldi	r18, 0x01	; 1
    2270:	c2 2e       	mov	r12, r18
    2272:	d1 2c       	mov	r13, r1
    2274:	42 01       	movw	r8, r4
    2276:	14 c0       	rjmp	.+40     	; 0x22a0 <vfprintf+0x162>
    2278:	92 e0       	ldi	r25, 0x02	; 2
    227a:	29 2e       	mov	r2, r25
    227c:	31 2c       	mov	r3, r1
    227e:	2a 0c       	add	r2, r10
    2280:	3b 1c       	adc	r3, r11
    2282:	f5 01       	movw	r30, r10
    2284:	80 80       	ld	r8, Z
    2286:	91 80       	ldd	r9, Z+1	; 0x01
    2288:	16 ff       	sbrs	r17, 6
    228a:	03 c0       	rjmp	.+6      	; 0x2292 <vfprintf+0x154>
    228c:	6f 2d       	mov	r22, r15
    228e:	70 e0       	ldi	r23, 0x00	; 0
    2290:	02 c0       	rjmp	.+4      	; 0x2296 <vfprintf+0x158>
    2292:	6f ef       	ldi	r22, 0xFF	; 255
    2294:	7f ef       	ldi	r23, 0xFF	; 255
    2296:	c4 01       	movw	r24, r8
    2298:	0e 94 b8 14 	call	0x2970	; 0x2970 <strnlen>
    229c:	6c 01       	movw	r12, r24
    229e:	51 01       	movw	r10, r2
    22a0:	1f 77       	andi	r17, 0x7F	; 127
    22a2:	15 c0       	rjmp	.+42     	; 0x22ce <vfprintf+0x190>
    22a4:	82 e0       	ldi	r24, 0x02	; 2
    22a6:	28 2e       	mov	r2, r24
    22a8:	31 2c       	mov	r3, r1
    22aa:	2a 0c       	add	r2, r10
    22ac:	3b 1c       	adc	r3, r11
    22ae:	f5 01       	movw	r30, r10
    22b0:	80 80       	ld	r8, Z
    22b2:	91 80       	ldd	r9, Z+1	; 0x01
    22b4:	16 ff       	sbrs	r17, 6
    22b6:	03 c0       	rjmp	.+6      	; 0x22be <vfprintf+0x180>
    22b8:	6f 2d       	mov	r22, r15
    22ba:	70 e0       	ldi	r23, 0x00	; 0
    22bc:	02 c0       	rjmp	.+4      	; 0x22c2 <vfprintf+0x184>
    22be:	6f ef       	ldi	r22, 0xFF	; 255
    22c0:	7f ef       	ldi	r23, 0xFF	; 255
    22c2:	c4 01       	movw	r24, r8
    22c4:	0e 94 ad 14 	call	0x295a	; 0x295a <strnlen_P>
    22c8:	6c 01       	movw	r12, r24
    22ca:	10 68       	ori	r17, 0x80	; 128
    22cc:	51 01       	movw	r10, r2
    22ce:	13 fd       	sbrc	r17, 3
    22d0:	1c c0       	rjmp	.+56     	; 0x230a <vfprintf+0x1cc>
    22d2:	06 c0       	rjmp	.+12     	; 0x22e0 <vfprintf+0x1a2>
    22d4:	80 e2       	ldi	r24, 0x20	; 32
    22d6:	90 e0       	ldi	r25, 0x00	; 0
    22d8:	b3 01       	movw	r22, r6
    22da:	0e 94 c3 14 	call	0x2986	; 0x2986 <fputc>
    22de:	ea 94       	dec	r14
    22e0:	8e 2d       	mov	r24, r14
    22e2:	90 e0       	ldi	r25, 0x00	; 0
    22e4:	c8 16       	cp	r12, r24
    22e6:	d9 06       	cpc	r13, r25
    22e8:	a8 f3       	brcs	.-22     	; 0x22d4 <vfprintf+0x196>
    22ea:	0f c0       	rjmp	.+30     	; 0x230a <vfprintf+0x1cc>
    22ec:	f4 01       	movw	r30, r8
    22ee:	17 fd       	sbrc	r17, 7
    22f0:	85 91       	lpm	r24, Z+
    22f2:	17 ff       	sbrs	r17, 7
    22f4:	81 91       	ld	r24, Z+
    22f6:	4f 01       	movw	r8, r30
    22f8:	90 e0       	ldi	r25, 0x00	; 0
    22fa:	b3 01       	movw	r22, r6
    22fc:	0e 94 c3 14 	call	0x2986	; 0x2986 <fputc>
    2300:	e1 10       	cpse	r14, r1
    2302:	ea 94       	dec	r14
    2304:	08 94       	sec
    2306:	c1 08       	sbc	r12, r1
    2308:	d1 08       	sbc	r13, r1
    230a:	c1 14       	cp	r12, r1
    230c:	d1 04       	cpc	r13, r1
    230e:	71 f7       	brne	.-36     	; 0x22ec <vfprintf+0x1ae>
    2310:	e7 c0       	rjmp	.+462    	; 0x24e0 <vfprintf+0x3a2>
    2312:	84 36       	cpi	r24, 0x64	; 100
    2314:	11 f0       	breq	.+4      	; 0x231a <vfprintf+0x1dc>
    2316:	89 36       	cpi	r24, 0x69	; 105
    2318:	51 f5       	brne	.+84     	; 0x236e <vfprintf+0x230>
    231a:	f5 01       	movw	r30, r10
    231c:	17 ff       	sbrs	r17, 7
    231e:	07 c0       	rjmp	.+14     	; 0x232e <vfprintf+0x1f0>
    2320:	80 81       	ld	r24, Z
    2322:	91 81       	ldd	r25, Z+1	; 0x01
    2324:	a2 81       	ldd	r26, Z+2	; 0x02
    2326:	b3 81       	ldd	r27, Z+3	; 0x03
    2328:	24 e0       	ldi	r18, 0x04	; 4
    232a:	30 e0       	ldi	r19, 0x00	; 0
    232c:	08 c0       	rjmp	.+16     	; 0x233e <vfprintf+0x200>
    232e:	80 81       	ld	r24, Z
    2330:	91 81       	ldd	r25, Z+1	; 0x01
    2332:	aa 27       	eor	r26, r26
    2334:	97 fd       	sbrc	r25, 7
    2336:	a0 95       	com	r26
    2338:	ba 2f       	mov	r27, r26
    233a:	22 e0       	ldi	r18, 0x02	; 2
    233c:	30 e0       	ldi	r19, 0x00	; 0
    233e:	a2 0e       	add	r10, r18
    2340:	b3 1e       	adc	r11, r19
    2342:	01 2f       	mov	r16, r17
    2344:	0f 76       	andi	r16, 0x6F	; 111
    2346:	b7 ff       	sbrs	r27, 7
    2348:	08 c0       	rjmp	.+16     	; 0x235a <vfprintf+0x21c>
    234a:	b0 95       	com	r27
    234c:	a0 95       	com	r26
    234e:	90 95       	com	r25
    2350:	81 95       	neg	r24
    2352:	9f 4f       	sbci	r25, 0xFF	; 255
    2354:	af 4f       	sbci	r26, 0xFF	; 255
    2356:	bf 4f       	sbci	r27, 0xFF	; 255
    2358:	00 68       	ori	r16, 0x80	; 128
    235a:	bc 01       	movw	r22, r24
    235c:	cd 01       	movw	r24, r26
    235e:	a2 01       	movw	r20, r4
    2360:	2a e0       	ldi	r18, 0x0A	; 10
    2362:	30 e0       	ldi	r19, 0x00	; 0
    2364:	0e 94 ef 14 	call	0x29de	; 0x29de <__ultoa_invert>
    2368:	d8 2e       	mov	r13, r24
    236a:	d4 18       	sub	r13, r4
    236c:	3f c0       	rjmp	.+126    	; 0x23ec <vfprintf+0x2ae>
    236e:	85 37       	cpi	r24, 0x75	; 117
    2370:	21 f4       	brne	.+8      	; 0x237a <vfprintf+0x23c>
    2372:	1f 7e       	andi	r17, 0xEF	; 239
    2374:	2a e0       	ldi	r18, 0x0A	; 10
    2376:	30 e0       	ldi	r19, 0x00	; 0
    2378:	20 c0       	rjmp	.+64     	; 0x23ba <vfprintf+0x27c>
    237a:	19 7f       	andi	r17, 0xF9	; 249
    237c:	8f 36       	cpi	r24, 0x6F	; 111
    237e:	a9 f0       	breq	.+42     	; 0x23aa <vfprintf+0x26c>
    2380:	80 37       	cpi	r24, 0x70	; 112
    2382:	20 f4       	brcc	.+8      	; 0x238c <vfprintf+0x24e>
    2384:	88 35       	cpi	r24, 0x58	; 88
    2386:	09 f0       	breq	.+2      	; 0x238a <vfprintf+0x24c>
    2388:	ae c0       	rjmp	.+348    	; 0x24e6 <vfprintf+0x3a8>
    238a:	0b c0       	rjmp	.+22     	; 0x23a2 <vfprintf+0x264>
    238c:	80 37       	cpi	r24, 0x70	; 112
    238e:	21 f0       	breq	.+8      	; 0x2398 <vfprintf+0x25a>
    2390:	88 37       	cpi	r24, 0x78	; 120
    2392:	09 f0       	breq	.+2      	; 0x2396 <vfprintf+0x258>
    2394:	a8 c0       	rjmp	.+336    	; 0x24e6 <vfprintf+0x3a8>
    2396:	01 c0       	rjmp	.+2      	; 0x239a <vfprintf+0x25c>
    2398:	10 61       	ori	r17, 0x10	; 16
    239a:	14 ff       	sbrs	r17, 4
    239c:	09 c0       	rjmp	.+18     	; 0x23b0 <vfprintf+0x272>
    239e:	14 60       	ori	r17, 0x04	; 4
    23a0:	07 c0       	rjmp	.+14     	; 0x23b0 <vfprintf+0x272>
    23a2:	14 ff       	sbrs	r17, 4
    23a4:	08 c0       	rjmp	.+16     	; 0x23b6 <vfprintf+0x278>
    23a6:	16 60       	ori	r17, 0x06	; 6
    23a8:	06 c0       	rjmp	.+12     	; 0x23b6 <vfprintf+0x278>
    23aa:	28 e0       	ldi	r18, 0x08	; 8
    23ac:	30 e0       	ldi	r19, 0x00	; 0
    23ae:	05 c0       	rjmp	.+10     	; 0x23ba <vfprintf+0x27c>
    23b0:	20 e1       	ldi	r18, 0x10	; 16
    23b2:	30 e0       	ldi	r19, 0x00	; 0
    23b4:	02 c0       	rjmp	.+4      	; 0x23ba <vfprintf+0x27c>
    23b6:	20 e1       	ldi	r18, 0x10	; 16
    23b8:	32 e0       	ldi	r19, 0x02	; 2
    23ba:	f5 01       	movw	r30, r10
    23bc:	17 ff       	sbrs	r17, 7
    23be:	07 c0       	rjmp	.+14     	; 0x23ce <vfprintf+0x290>
    23c0:	60 81       	ld	r22, Z
    23c2:	71 81       	ldd	r23, Z+1	; 0x01
    23c4:	82 81       	ldd	r24, Z+2	; 0x02
    23c6:	93 81       	ldd	r25, Z+3	; 0x03
    23c8:	44 e0       	ldi	r20, 0x04	; 4
    23ca:	50 e0       	ldi	r21, 0x00	; 0
    23cc:	06 c0       	rjmp	.+12     	; 0x23da <vfprintf+0x29c>
    23ce:	60 81       	ld	r22, Z
    23d0:	71 81       	ldd	r23, Z+1	; 0x01
    23d2:	80 e0       	ldi	r24, 0x00	; 0
    23d4:	90 e0       	ldi	r25, 0x00	; 0
    23d6:	42 e0       	ldi	r20, 0x02	; 2
    23d8:	50 e0       	ldi	r21, 0x00	; 0
    23da:	a4 0e       	add	r10, r20
    23dc:	b5 1e       	adc	r11, r21
    23de:	a2 01       	movw	r20, r4
    23e0:	0e 94 ef 14 	call	0x29de	; 0x29de <__ultoa_invert>
    23e4:	d8 2e       	mov	r13, r24
    23e6:	d4 18       	sub	r13, r4
    23e8:	01 2f       	mov	r16, r17
    23ea:	0f 77       	andi	r16, 0x7F	; 127
    23ec:	06 ff       	sbrs	r16, 6
    23ee:	09 c0       	rjmp	.+18     	; 0x2402 <vfprintf+0x2c4>
    23f0:	0e 7f       	andi	r16, 0xFE	; 254
    23f2:	df 14       	cp	r13, r15
    23f4:	30 f4       	brcc	.+12     	; 0x2402 <vfprintf+0x2c4>
    23f6:	04 ff       	sbrs	r16, 4
    23f8:	06 c0       	rjmp	.+12     	; 0x2406 <vfprintf+0x2c8>
    23fa:	02 fd       	sbrc	r16, 2
    23fc:	04 c0       	rjmp	.+8      	; 0x2406 <vfprintf+0x2c8>
    23fe:	0f 7e       	andi	r16, 0xEF	; 239
    2400:	02 c0       	rjmp	.+4      	; 0x2406 <vfprintf+0x2c8>
    2402:	1d 2d       	mov	r17, r13
    2404:	01 c0       	rjmp	.+2      	; 0x2408 <vfprintf+0x2ca>
    2406:	1f 2d       	mov	r17, r15
    2408:	80 2f       	mov	r24, r16
    240a:	90 e0       	ldi	r25, 0x00	; 0
    240c:	04 ff       	sbrs	r16, 4
    240e:	0c c0       	rjmp	.+24     	; 0x2428 <vfprintf+0x2ea>
    2410:	fe 01       	movw	r30, r28
    2412:	ed 0d       	add	r30, r13
    2414:	f1 1d       	adc	r31, r1
    2416:	20 81       	ld	r18, Z
    2418:	20 33       	cpi	r18, 0x30	; 48
    241a:	11 f4       	brne	.+4      	; 0x2420 <vfprintf+0x2e2>
    241c:	09 7e       	andi	r16, 0xE9	; 233
    241e:	09 c0       	rjmp	.+18     	; 0x2432 <vfprintf+0x2f4>
    2420:	02 ff       	sbrs	r16, 2
    2422:	06 c0       	rjmp	.+12     	; 0x2430 <vfprintf+0x2f2>
    2424:	1e 5f       	subi	r17, 0xFE	; 254
    2426:	05 c0       	rjmp	.+10     	; 0x2432 <vfprintf+0x2f4>
    2428:	86 78       	andi	r24, 0x86	; 134
    242a:	90 70       	andi	r25, 0x00	; 0
    242c:	00 97       	sbiw	r24, 0x00	; 0
    242e:	09 f0       	breq	.+2      	; 0x2432 <vfprintf+0x2f4>
    2430:	1f 5f       	subi	r17, 0xFF	; 255
    2432:	80 2e       	mov	r8, r16
    2434:	99 24       	eor	r9, r9
    2436:	03 fd       	sbrc	r16, 3
    2438:	12 c0       	rjmp	.+36     	; 0x245e <vfprintf+0x320>
    243a:	00 ff       	sbrs	r16, 0
    243c:	0d c0       	rjmp	.+26     	; 0x2458 <vfprintf+0x31a>
    243e:	fd 2c       	mov	r15, r13
    2440:	1e 15       	cp	r17, r14
    2442:	50 f4       	brcc	.+20     	; 0x2458 <vfprintf+0x31a>
    2444:	fe 0c       	add	r15, r14
    2446:	f1 1a       	sub	r15, r17
    2448:	1e 2d       	mov	r17, r14
    244a:	06 c0       	rjmp	.+12     	; 0x2458 <vfprintf+0x31a>
    244c:	80 e2       	ldi	r24, 0x20	; 32
    244e:	90 e0       	ldi	r25, 0x00	; 0
    2450:	b3 01       	movw	r22, r6
    2452:	0e 94 c3 14 	call	0x2986	; 0x2986 <fputc>
    2456:	1f 5f       	subi	r17, 0xFF	; 255
    2458:	1e 15       	cp	r17, r14
    245a:	c0 f3       	brcs	.-16     	; 0x244c <vfprintf+0x30e>
    245c:	04 c0       	rjmp	.+8      	; 0x2466 <vfprintf+0x328>
    245e:	1e 15       	cp	r17, r14
    2460:	10 f4       	brcc	.+4      	; 0x2466 <vfprintf+0x328>
    2462:	e1 1a       	sub	r14, r17
    2464:	01 c0       	rjmp	.+2      	; 0x2468 <vfprintf+0x32a>
    2466:	ee 24       	eor	r14, r14
    2468:	84 fe       	sbrs	r8, 4
    246a:	0f c0       	rjmp	.+30     	; 0x248a <vfprintf+0x34c>
    246c:	80 e3       	ldi	r24, 0x30	; 48
    246e:	90 e0       	ldi	r25, 0x00	; 0
    2470:	b3 01       	movw	r22, r6
    2472:	0e 94 c3 14 	call	0x2986	; 0x2986 <fputc>
    2476:	82 fe       	sbrs	r8, 2
    2478:	1f c0       	rjmp	.+62     	; 0x24b8 <vfprintf+0x37a>
    247a:	81 fe       	sbrs	r8, 1
    247c:	03 c0       	rjmp	.+6      	; 0x2484 <vfprintf+0x346>
    247e:	88 e5       	ldi	r24, 0x58	; 88
    2480:	90 e0       	ldi	r25, 0x00	; 0
    2482:	10 c0       	rjmp	.+32     	; 0x24a4 <vfprintf+0x366>
    2484:	88 e7       	ldi	r24, 0x78	; 120
    2486:	90 e0       	ldi	r25, 0x00	; 0
    2488:	0d c0       	rjmp	.+26     	; 0x24a4 <vfprintf+0x366>
    248a:	c4 01       	movw	r24, r8
    248c:	86 78       	andi	r24, 0x86	; 134
    248e:	90 70       	andi	r25, 0x00	; 0
    2490:	00 97       	sbiw	r24, 0x00	; 0
    2492:	91 f0       	breq	.+36     	; 0x24b8 <vfprintf+0x37a>
    2494:	81 fc       	sbrc	r8, 1
    2496:	02 c0       	rjmp	.+4      	; 0x249c <vfprintf+0x35e>
    2498:	80 e2       	ldi	r24, 0x20	; 32
    249a:	01 c0       	rjmp	.+2      	; 0x249e <vfprintf+0x360>
    249c:	8b e2       	ldi	r24, 0x2B	; 43
    249e:	07 fd       	sbrc	r16, 7
    24a0:	8d e2       	ldi	r24, 0x2D	; 45
    24a2:	90 e0       	ldi	r25, 0x00	; 0
    24a4:	b3 01       	movw	r22, r6
    24a6:	0e 94 c3 14 	call	0x2986	; 0x2986 <fputc>
    24aa:	06 c0       	rjmp	.+12     	; 0x24b8 <vfprintf+0x37a>
    24ac:	80 e3       	ldi	r24, 0x30	; 48
    24ae:	90 e0       	ldi	r25, 0x00	; 0
    24b0:	b3 01       	movw	r22, r6
    24b2:	0e 94 c3 14 	call	0x2986	; 0x2986 <fputc>
    24b6:	fa 94       	dec	r15
    24b8:	df 14       	cp	r13, r15
    24ba:	c0 f3       	brcs	.-16     	; 0x24ac <vfprintf+0x36e>
    24bc:	da 94       	dec	r13
    24be:	f2 01       	movw	r30, r4
    24c0:	ed 0d       	add	r30, r13
    24c2:	f1 1d       	adc	r31, r1
    24c4:	80 81       	ld	r24, Z
    24c6:	90 e0       	ldi	r25, 0x00	; 0
    24c8:	b3 01       	movw	r22, r6
    24ca:	0e 94 c3 14 	call	0x2986	; 0x2986 <fputc>
    24ce:	dd 20       	and	r13, r13
    24d0:	a9 f7       	brne	.-22     	; 0x24bc <vfprintf+0x37e>
    24d2:	06 c0       	rjmp	.+12     	; 0x24e0 <vfprintf+0x3a2>
    24d4:	80 e2       	ldi	r24, 0x20	; 32
    24d6:	90 e0       	ldi	r25, 0x00	; 0
    24d8:	b3 01       	movw	r22, r6
    24da:	0e 94 c3 14 	call	0x2986	; 0x2986 <fputc>
    24de:	ea 94       	dec	r14
    24e0:	ee 20       	and	r14, r14
    24e2:	c1 f7       	brne	.-16     	; 0x24d4 <vfprintf+0x396>
    24e4:	40 ce       	rjmp	.-896    	; 0x2166 <vfprintf+0x28>
    24e6:	f3 01       	movw	r30, r6
    24e8:	86 81       	ldd	r24, Z+6	; 0x06
    24ea:	97 81       	ldd	r25, Z+7	; 0x07
    24ec:	02 c0       	rjmp	.+4      	; 0x24f2 <vfprintf+0x3b4>
    24ee:	8f ef       	ldi	r24, 0xFF	; 255
    24f0:	9f ef       	ldi	r25, 0xFF	; 255
    24f2:	2d 96       	adiw	r28, 0x0d	; 13
    24f4:	e2 e1       	ldi	r30, 0x12	; 18
    24f6:	0c 94 69 15 	jmp	0x2ad2	; 0x2ad2 <__epilogue_restores__>

000024fa <dtoa_prf>:
    24fa:	a9 e0       	ldi	r26, 0x09	; 9
    24fc:	b0 e0       	ldi	r27, 0x00	; 0
    24fe:	e3 e8       	ldi	r30, 0x83	; 131
    2500:	f2 e1       	ldi	r31, 0x12	; 18
    2502:	0c 94 51 15 	jmp	0x2aa2	; 0x2aa2 <__prologue_saves__+0x8>
    2506:	6a 01       	movw	r12, r20
    2508:	12 2f       	mov	r17, r18
    250a:	f0 2e       	mov	r15, r16
    250c:	2b e3       	ldi	r18, 0x3B	; 59
    250e:	20 17       	cp	r18, r16
    2510:	18 f0       	brcs	.+6      	; 0x2518 <dtoa_prf+0x1e>
    2512:	b0 2e       	mov	r11, r16
    2514:	b3 94       	inc	r11
    2516:	02 c0       	rjmp	.+4      	; 0x251c <dtoa_prf+0x22>
    2518:	3c e3       	ldi	r19, 0x3C	; 60
    251a:	b3 2e       	mov	r11, r19
    251c:	ae 01       	movw	r20, r28
    251e:	4f 5f       	subi	r20, 0xFF	; 255
    2520:	5f 4f       	sbci	r21, 0xFF	; 255
    2522:	27 e0       	ldi	r18, 0x07	; 7
    2524:	0b 2d       	mov	r16, r11
    2526:	0e 94 d5 13 	call	0x27aa	; 0x27aa <__ftoa_engine>
    252a:	bc 01       	movw	r22, r24
    252c:	a9 81       	ldd	r26, Y+1	; 0x01
    252e:	b0 e0       	ldi	r27, 0x00	; 0
    2530:	cd 01       	movw	r24, r26
    2532:	89 70       	andi	r24, 0x09	; 9
    2534:	90 70       	andi	r25, 0x00	; 0
    2536:	81 30       	cpi	r24, 0x01	; 1
    2538:	91 05       	cpc	r25, r1
    253a:	31 f0       	breq	.+12     	; 0x2548 <dtoa_prf+0x4e>
    253c:	e1 fc       	sbrc	r14, 1
    253e:	06 c0       	rjmp	.+12     	; 0x254c <dtoa_prf+0x52>
    2540:	e0 fe       	sbrs	r14, 0
    2542:	06 c0       	rjmp	.+12     	; 0x2550 <dtoa_prf+0x56>
    2544:	40 e2       	ldi	r20, 0x20	; 32
    2546:	05 c0       	rjmp	.+10     	; 0x2552 <dtoa_prf+0x58>
    2548:	4d e2       	ldi	r20, 0x2D	; 45
    254a:	03 c0       	rjmp	.+6      	; 0x2552 <dtoa_prf+0x58>
    254c:	4b e2       	ldi	r20, 0x2B	; 43
    254e:	01 c0       	rjmp	.+2      	; 0x2552 <dtoa_prf+0x58>
    2550:	40 e0       	ldi	r20, 0x00	; 0
    2552:	a3 ff       	sbrs	r26, 3
    2554:	36 c0       	rjmp	.+108    	; 0x25c2 <dtoa_prf+0xc8>
    2556:	44 23       	and	r20, r20
    2558:	11 f0       	breq	.+4      	; 0x255e <dtoa_prf+0x64>
    255a:	84 e0       	ldi	r24, 0x04	; 4
    255c:	01 c0       	rjmp	.+2      	; 0x2560 <dtoa_prf+0x66>
    255e:	83 e0       	ldi	r24, 0x03	; 3
    2560:	81 17       	cp	r24, r17
    2562:	10 f4       	brcc	.+4      	; 0x2568 <dtoa_prf+0x6e>
    2564:	18 1b       	sub	r17, r24
    2566:	01 c0       	rjmp	.+2      	; 0x256a <dtoa_prf+0x70>
    2568:	10 e0       	ldi	r17, 0x00	; 0
    256a:	e4 fc       	sbrc	r14, 4
    256c:	0b c0       	rjmp	.+22     	; 0x2584 <dtoa_prf+0x8a>
    256e:	91 2f       	mov	r25, r17
    2570:	f6 01       	movw	r30, r12
    2572:	80 e2       	ldi	r24, 0x20	; 32
    2574:	02 c0       	rjmp	.+4      	; 0x257a <dtoa_prf+0x80>
    2576:	81 93       	st	Z+, r24
    2578:	91 50       	subi	r25, 0x01	; 1
    257a:	99 23       	and	r25, r25
    257c:	e1 f7       	brne	.-8      	; 0x2576 <dtoa_prf+0x7c>
    257e:	c1 0e       	add	r12, r17
    2580:	d1 1c       	adc	r13, r1
    2582:	10 e0       	ldi	r17, 0x00	; 0
    2584:	44 23       	and	r20, r20
    2586:	19 f0       	breq	.+6      	; 0x258e <dtoa_prf+0x94>
    2588:	f6 01       	movw	r30, r12
    258a:	41 93       	st	Z+, r20
    258c:	6f 01       	movw	r12, r30
    258e:	e2 fe       	sbrs	r14, 2
    2590:	05 c0       	rjmp	.+10     	; 0x259c <dtoa_prf+0xa2>
    2592:	8e e4       	ldi	r24, 0x4E	; 78
    2594:	f6 01       	movw	r30, r12
    2596:	80 83       	st	Z, r24
    2598:	91 e4       	ldi	r25, 0x41	; 65
    259a:	04 c0       	rjmp	.+8      	; 0x25a4 <dtoa_prf+0xaa>
    259c:	8e e6       	ldi	r24, 0x6E	; 110
    259e:	f6 01       	movw	r30, r12
    25a0:	80 83       	st	Z, r24
    25a2:	91 e6       	ldi	r25, 0x61	; 97
    25a4:	91 83       	std	Z+1, r25	; 0x01
    25a6:	82 83       	std	Z+2, r24	; 0x02
    25a8:	83 e0       	ldi	r24, 0x03	; 3
    25aa:	90 e0       	ldi	r25, 0x00	; 0
    25ac:	c8 0e       	add	r12, r24
    25ae:	d9 1e       	adc	r13, r25
    25b0:	81 2f       	mov	r24, r17
    25b2:	f6 01       	movw	r30, r12
    25b4:	90 e2       	ldi	r25, 0x20	; 32
    25b6:	02 c0       	rjmp	.+4      	; 0x25bc <dtoa_prf+0xc2>
    25b8:	91 93       	st	Z+, r25
    25ba:	81 50       	subi	r24, 0x01	; 1
    25bc:	88 23       	and	r24, r24
    25be:	e1 f7       	brne	.-8      	; 0x25b8 <dtoa_prf+0xbe>
    25c0:	3a c0       	rjmp	.+116    	; 0x2636 <dtoa_prf+0x13c>
    25c2:	a2 ff       	sbrs	r26, 2
    25c4:	3f c0       	rjmp	.+126    	; 0x2644 <dtoa_prf+0x14a>
    25c6:	44 23       	and	r20, r20
    25c8:	11 f0       	breq	.+4      	; 0x25ce <dtoa_prf+0xd4>
    25ca:	84 e0       	ldi	r24, 0x04	; 4
    25cc:	01 c0       	rjmp	.+2      	; 0x25d0 <dtoa_prf+0xd6>
    25ce:	83 e0       	ldi	r24, 0x03	; 3
    25d0:	81 17       	cp	r24, r17
    25d2:	10 f4       	brcc	.+4      	; 0x25d8 <dtoa_prf+0xde>
    25d4:	18 1b       	sub	r17, r24
    25d6:	01 c0       	rjmp	.+2      	; 0x25da <dtoa_prf+0xe0>
    25d8:	10 e0       	ldi	r17, 0x00	; 0
    25da:	e4 fc       	sbrc	r14, 4
    25dc:	0b c0       	rjmp	.+22     	; 0x25f4 <dtoa_prf+0xfa>
    25de:	91 2f       	mov	r25, r17
    25e0:	f6 01       	movw	r30, r12
    25e2:	80 e2       	ldi	r24, 0x20	; 32
    25e4:	02 c0       	rjmp	.+4      	; 0x25ea <dtoa_prf+0xf0>
    25e6:	81 93       	st	Z+, r24
    25e8:	91 50       	subi	r25, 0x01	; 1
    25ea:	99 23       	and	r25, r25
    25ec:	e1 f7       	brne	.-8      	; 0x25e6 <dtoa_prf+0xec>
    25ee:	c1 0e       	add	r12, r17
    25f0:	d1 1c       	adc	r13, r1
    25f2:	10 e0       	ldi	r17, 0x00	; 0
    25f4:	44 23       	and	r20, r20
    25f6:	19 f0       	breq	.+6      	; 0x25fe <dtoa_prf+0x104>
    25f8:	f6 01       	movw	r30, r12
    25fa:	41 93       	st	Z+, r20
    25fc:	6f 01       	movw	r12, r30
    25fe:	e2 fe       	sbrs	r14, 2
    2600:	07 c0       	rjmp	.+14     	; 0x2610 <dtoa_prf+0x116>
    2602:	89 e4       	ldi	r24, 0x49	; 73
    2604:	f6 01       	movw	r30, r12
    2606:	80 83       	st	Z, r24
    2608:	8e e4       	ldi	r24, 0x4E	; 78
    260a:	81 83       	std	Z+1, r24	; 0x01
    260c:	86 e4       	ldi	r24, 0x46	; 70
    260e:	06 c0       	rjmp	.+12     	; 0x261c <dtoa_prf+0x122>
    2610:	89 e6       	ldi	r24, 0x69	; 105
    2612:	f6 01       	movw	r30, r12
    2614:	80 83       	st	Z, r24
    2616:	8e e6       	ldi	r24, 0x6E	; 110
    2618:	81 83       	std	Z+1, r24	; 0x01
    261a:	86 e6       	ldi	r24, 0x66	; 102
    261c:	82 83       	std	Z+2, r24	; 0x02
    261e:	83 e0       	ldi	r24, 0x03	; 3
    2620:	90 e0       	ldi	r25, 0x00	; 0
    2622:	c8 0e       	add	r12, r24
    2624:	d9 1e       	adc	r13, r25
    2626:	81 2f       	mov	r24, r17
    2628:	f6 01       	movw	r30, r12
    262a:	90 e2       	ldi	r25, 0x20	; 32
    262c:	02 c0       	rjmp	.+4      	; 0x2632 <dtoa_prf+0x138>
    262e:	91 93       	st	Z+, r25
    2630:	81 50       	subi	r24, 0x01	; 1
    2632:	88 23       	and	r24, r24
    2634:	e1 f7       	brne	.-8      	; 0x262e <dtoa_prf+0x134>
    2636:	c1 0e       	add	r12, r17
    2638:	d1 1c       	adc	r13, r1
    263a:	f6 01       	movw	r30, r12
    263c:	10 82       	st	Z, r1
    263e:	8e ef       	ldi	r24, 0xFE	; 254
    2640:	9f ef       	ldi	r25, 0xFF	; 255
    2642:	af c0       	rjmp	.+350    	; 0x27a2 <dtoa_prf+0x2a8>
    2644:	21 e0       	ldi	r18, 0x01	; 1
    2646:	30 e0       	ldi	r19, 0x00	; 0
    2648:	44 23       	and	r20, r20
    264a:	11 f4       	brne	.+4      	; 0x2650 <dtoa_prf+0x156>
    264c:	20 e0       	ldi	r18, 0x00	; 0
    264e:	30 e0       	ldi	r19, 0x00	; 0
    2650:	16 16       	cp	r1, r22
    2652:	17 06       	cpc	r1, r23
    2654:	1c f4       	brge	.+6      	; 0x265c <dtoa_prf+0x162>
    2656:	cb 01       	movw	r24, r22
    2658:	01 96       	adiw	r24, 0x01	; 1
    265a:	02 c0       	rjmp	.+4      	; 0x2660 <dtoa_prf+0x166>
    265c:	81 e0       	ldi	r24, 0x01	; 1
    265e:	90 e0       	ldi	r25, 0x00	; 0
    2660:	28 0f       	add	r18, r24
    2662:	39 1f       	adc	r19, r25
    2664:	ff 20       	and	r15, r15
    2666:	21 f0       	breq	.+8      	; 0x2670 <dtoa_prf+0x176>
    2668:	8f 2d       	mov	r24, r15
    266a:	90 e0       	ldi	r25, 0x00	; 0
    266c:	01 96       	adiw	r24, 0x01	; 1
    266e:	02 c0       	rjmp	.+4      	; 0x2674 <dtoa_prf+0x17a>
    2670:	80 e0       	ldi	r24, 0x00	; 0
    2672:	90 e0       	ldi	r25, 0x00	; 0
    2674:	82 0f       	add	r24, r18
    2676:	93 1f       	adc	r25, r19
    2678:	21 2f       	mov	r18, r17
    267a:	30 e0       	ldi	r19, 0x00	; 0
    267c:	82 17       	cp	r24, r18
    267e:	93 07       	cpc	r25, r19
    2680:	1c f4       	brge	.+6      	; 0x2688 <dtoa_prf+0x18e>
    2682:	51 2f       	mov	r21, r17
    2684:	58 1b       	sub	r21, r24
    2686:	01 c0       	rjmp	.+2      	; 0x268a <dtoa_prf+0x190>
    2688:	50 e0       	ldi	r21, 0x00	; 0
    268a:	8e 2d       	mov	r24, r14
    268c:	90 e0       	ldi	r25, 0x00	; 0
    268e:	9c 01       	movw	r18, r24
    2690:	20 71       	andi	r18, 0x10	; 16
    2692:	30 70       	andi	r19, 0x00	; 0
    2694:	e4 fc       	sbrc	r14, 4
    2696:	0d c0       	rjmp	.+26     	; 0x26b2 <dtoa_prf+0x1b8>
    2698:	e3 fc       	sbrc	r14, 3
    269a:	0b c0       	rjmp	.+22     	; 0x26b2 <dtoa_prf+0x1b8>
    269c:	85 2f       	mov	r24, r21
    269e:	f6 01       	movw	r30, r12
    26a0:	90 e2       	ldi	r25, 0x20	; 32
    26a2:	02 c0       	rjmp	.+4      	; 0x26a8 <dtoa_prf+0x1ae>
    26a4:	91 93       	st	Z+, r25
    26a6:	81 50       	subi	r24, 0x01	; 1
    26a8:	88 23       	and	r24, r24
    26aa:	e1 f7       	brne	.-8      	; 0x26a4 <dtoa_prf+0x1aa>
    26ac:	c5 0e       	add	r12, r21
    26ae:	d1 1c       	adc	r13, r1
    26b0:	50 e0       	ldi	r21, 0x00	; 0
    26b2:	44 23       	and	r20, r20
    26b4:	19 f0       	breq	.+6      	; 0x26bc <dtoa_prf+0x1c2>
    26b6:	f6 01       	movw	r30, r12
    26b8:	41 93       	st	Z+, r20
    26ba:	6f 01       	movw	r12, r30
    26bc:	21 15       	cp	r18, r1
    26be:	31 05       	cpc	r19, r1
    26c0:	59 f4       	brne	.+22     	; 0x26d8 <dtoa_prf+0x1de>
    26c2:	85 2f       	mov	r24, r21
    26c4:	f6 01       	movw	r30, r12
    26c6:	90 e3       	ldi	r25, 0x30	; 48
    26c8:	02 c0       	rjmp	.+4      	; 0x26ce <dtoa_prf+0x1d4>
    26ca:	91 93       	st	Z+, r25
    26cc:	81 50       	subi	r24, 0x01	; 1
    26ce:	88 23       	and	r24, r24
    26d0:	e1 f7       	brne	.-8      	; 0x26ca <dtoa_prf+0x1d0>
    26d2:	c5 0e       	add	r12, r21
    26d4:	d1 1c       	adc	r13, r1
    26d6:	50 e0       	ldi	r21, 0x00	; 0
    26d8:	b6 0e       	add	r11, r22
    26da:	4a 81       	ldd	r20, Y+2	; 0x02
    26dc:	20 e1       	ldi	r18, 0x10	; 16
    26de:	62 2e       	mov	r6, r18
    26e0:	71 2c       	mov	r7, r1
    26e2:	6a 22       	and	r6, r26
    26e4:	7b 22       	and	r7, r27
    26e6:	a4 ff       	sbrs	r26, 4
    26e8:	03 c0       	rjmp	.+6      	; 0x26f0 <dtoa_prf+0x1f6>
    26ea:	41 33       	cpi	r20, 0x31	; 49
    26ec:	09 f4       	brne	.+2      	; 0x26f0 <dtoa_prf+0x1f6>
    26ee:	ba 94       	dec	r11
    26f0:	1b 14       	cp	r1, r11
    26f2:	2c f4       	brge	.+10     	; 0x26fe <dtoa_prf+0x204>
    26f4:	8b 2d       	mov	r24, r11
    26f6:	89 30       	cpi	r24, 0x09	; 9
    26f8:	18 f0       	brcs	.+6      	; 0x2700 <dtoa_prf+0x206>
    26fa:	88 e0       	ldi	r24, 0x08	; 8
    26fc:	01 c0       	rjmp	.+2      	; 0x2700 <dtoa_prf+0x206>
    26fe:	81 e0       	ldi	r24, 0x01	; 1
    2700:	9b 01       	movw	r18, r22
    2702:	77 ff       	sbrs	r23, 7
    2704:	02 c0       	rjmp	.+4      	; 0x270a <dtoa_prf+0x210>
    2706:	20 e0       	ldi	r18, 0x00	; 0
    2708:	30 e0       	ldi	r19, 0x00	; 0
    270a:	a0 e0       	ldi	r26, 0x00	; 0
    270c:	b0 e0       	ldi	r27, 0x00	; 0
    270e:	9e e2       	ldi	r25, 0x2E	; 46
    2710:	e9 2e       	mov	r14, r25
    2712:	4b 01       	movw	r8, r22
    2714:	88 1a       	sub	r8, r24
    2716:	91 08       	sbc	r9, r1
    2718:	cb 01       	movw	r24, r22
    271a:	82 1b       	sub	r24, r18
    271c:	93 0b       	sbc	r25, r19
    271e:	8e 01       	movw	r16, r28
    2720:	0f 5f       	subi	r16, 0xFF	; 255
    2722:	1f 4f       	sbci	r17, 0xFF	; 255
    2724:	08 0f       	add	r16, r24
    2726:	19 1f       	adc	r17, r25
    2728:	8f 2d       	mov	r24, r15
    272a:	90 e0       	ldi	r25, 0x00	; 0
    272c:	aa 24       	eor	r10, r10
    272e:	bb 24       	eor	r11, r11
    2730:	a8 1a       	sub	r10, r24
    2732:	b9 0a       	sbc	r11, r25
    2734:	ff ef       	ldi	r31, 0xFF	; 255
    2736:	2f 3f       	cpi	r18, 0xFF	; 255
    2738:	3f 07       	cpc	r19, r31
    273a:	19 f4       	brne	.+6      	; 0x2742 <dtoa_prf+0x248>
    273c:	f6 01       	movw	r30, r12
    273e:	e1 92       	st	Z+, r14
    2740:	6f 01       	movw	r12, r30
    2742:	62 17       	cp	r22, r18
    2744:	73 07       	cpc	r23, r19
    2746:	44 f0       	brlt	.+16     	; 0x2758 <dtoa_prf+0x25e>
    2748:	82 16       	cp	r8, r18
    274a:	93 06       	cpc	r9, r19
    274c:	2c f4       	brge	.+10     	; 0x2758 <dtoa_prf+0x25e>
    274e:	f8 01       	movw	r30, r16
    2750:	ea 0f       	add	r30, r26
    2752:	fb 1f       	adc	r31, r27
    2754:	81 81       	ldd	r24, Z+1	; 0x01
    2756:	01 c0       	rjmp	.+2      	; 0x275a <dtoa_prf+0x260>
    2758:	80 e3       	ldi	r24, 0x30	; 48
    275a:	21 50       	subi	r18, 0x01	; 1
    275c:	30 40       	sbci	r19, 0x00	; 0
    275e:	11 96       	adiw	r26, 0x01	; 1
    2760:	2a 15       	cp	r18, r10
    2762:	3b 05       	cpc	r19, r11
    2764:	24 f0       	brlt	.+8      	; 0x276e <dtoa_prf+0x274>
    2766:	f6 01       	movw	r30, r12
    2768:	81 93       	st	Z+, r24
    276a:	6f 01       	movw	r12, r30
    276c:	e3 cf       	rjmp	.-58     	; 0x2734 <dtoa_prf+0x23a>
    276e:	26 17       	cp	r18, r22
    2770:	37 07       	cpc	r19, r23
    2772:	41 f4       	brne	.+16     	; 0x2784 <dtoa_prf+0x28a>
    2774:	46 33       	cpi	r20, 0x36	; 54
    2776:	28 f4       	brcc	.+10     	; 0x2782 <dtoa_prf+0x288>
    2778:	45 33       	cpi	r20, 0x35	; 53
    277a:	21 f4       	brne	.+8      	; 0x2784 <dtoa_prf+0x28a>
    277c:	61 14       	cp	r6, r1
    277e:	71 04       	cpc	r7, r1
    2780:	09 f4       	brne	.+2      	; 0x2784 <dtoa_prf+0x28a>
    2782:	81 e3       	ldi	r24, 0x31	; 49
    2784:	f6 01       	movw	r30, r12
    2786:	81 93       	st	Z+, r24
    2788:	85 2f       	mov	r24, r21
    278a:	df 01       	movw	r26, r30
    278c:	90 e2       	ldi	r25, 0x20	; 32
    278e:	02 c0       	rjmp	.+4      	; 0x2794 <dtoa_prf+0x29a>
    2790:	9d 93       	st	X+, r25
    2792:	81 50       	subi	r24, 0x01	; 1
    2794:	88 23       	and	r24, r24
    2796:	e1 f7       	brne	.-8      	; 0x2790 <dtoa_prf+0x296>
    2798:	e5 0f       	add	r30, r21
    279a:	f1 1d       	adc	r31, r1
    279c:	10 82       	st	Z, r1
    279e:	80 e0       	ldi	r24, 0x00	; 0
    27a0:	90 e0       	ldi	r25, 0x00	; 0
    27a2:	29 96       	adiw	r28, 0x09	; 9
    27a4:	ee e0       	ldi	r30, 0x0E	; 14
    27a6:	0c 94 6d 15 	jmp	0x2ada	; 0x2ada <__epilogue_restores__+0x8>

000027aa <__ftoa_engine>:
    27aa:	28 30       	cpi	r18, 0x08	; 8
    27ac:	08 f0       	brcs	.+2      	; 0x27b0 <__ftoa_engine+0x6>
    27ae:	27 e0       	ldi	r18, 0x07	; 7
    27b0:	33 27       	eor	r19, r19
    27b2:	da 01       	movw	r26, r20
    27b4:	99 0f       	add	r25, r25
    27b6:	31 1d       	adc	r19, r1
    27b8:	87 fd       	sbrc	r24, 7
    27ba:	91 60       	ori	r25, 0x01	; 1
    27bc:	00 96       	adiw	r24, 0x00	; 0
    27be:	61 05       	cpc	r22, r1
    27c0:	71 05       	cpc	r23, r1
    27c2:	39 f4       	brne	.+14     	; 0x27d2 <__ftoa_engine+0x28>
    27c4:	32 60       	ori	r19, 0x02	; 2
    27c6:	2e 5f       	subi	r18, 0xFE	; 254
    27c8:	3d 93       	st	X+, r19
    27ca:	30 e3       	ldi	r19, 0x30	; 48
    27cc:	2a 95       	dec	r18
    27ce:	e1 f7       	brne	.-8      	; 0x27c8 <__ftoa_engine+0x1e>
    27d0:	08 95       	ret
    27d2:	9f 3f       	cpi	r25, 0xFF	; 255
    27d4:	30 f0       	brcs	.+12     	; 0x27e2 <__ftoa_engine+0x38>
    27d6:	80 38       	cpi	r24, 0x80	; 128
    27d8:	71 05       	cpc	r23, r1
    27da:	61 05       	cpc	r22, r1
    27dc:	09 f0       	breq	.+2      	; 0x27e0 <__ftoa_engine+0x36>
    27de:	3c 5f       	subi	r19, 0xFC	; 252
    27e0:	3c 5f       	subi	r19, 0xFC	; 252
    27e2:	3d 93       	st	X+, r19
    27e4:	91 30       	cpi	r25, 0x01	; 1
    27e6:	08 f0       	brcs	.+2      	; 0x27ea <__ftoa_engine+0x40>
    27e8:	80 68       	ori	r24, 0x80	; 128
    27ea:	91 1d       	adc	r25, r1
    27ec:	df 93       	push	r29
    27ee:	cf 93       	push	r28
    27f0:	1f 93       	push	r17
    27f2:	0f 93       	push	r16
    27f4:	ff 92       	push	r15
    27f6:	ef 92       	push	r14
    27f8:	19 2f       	mov	r17, r25
    27fa:	98 7f       	andi	r25, 0xF8	; 248
    27fc:	96 95       	lsr	r25
    27fe:	e9 2f       	mov	r30, r25
    2800:	96 95       	lsr	r25
    2802:	96 95       	lsr	r25
    2804:	e9 0f       	add	r30, r25
    2806:	ff 27       	eor	r31, r31
    2808:	e4 5e       	subi	r30, 0xE4	; 228
    280a:	fe 4f       	sbci	r31, 0xFE	; 254
    280c:	99 27       	eor	r25, r25
    280e:	33 27       	eor	r19, r19
    2810:	ee 24       	eor	r14, r14
    2812:	ff 24       	eor	r15, r15
    2814:	a7 01       	movw	r20, r14
    2816:	e7 01       	movw	r28, r14
    2818:	05 90       	lpm	r0, Z+
    281a:	08 94       	sec
    281c:	07 94       	ror	r0
    281e:	28 f4       	brcc	.+10     	; 0x282a <__ftoa_engine+0x80>
    2820:	36 0f       	add	r19, r22
    2822:	e7 1e       	adc	r14, r23
    2824:	f8 1e       	adc	r15, r24
    2826:	49 1f       	adc	r20, r25
    2828:	51 1d       	adc	r21, r1
    282a:	66 0f       	add	r22, r22
    282c:	77 1f       	adc	r23, r23
    282e:	88 1f       	adc	r24, r24
    2830:	99 1f       	adc	r25, r25
    2832:	06 94       	lsr	r0
    2834:	a1 f7       	brne	.-24     	; 0x281e <__ftoa_engine+0x74>
    2836:	05 90       	lpm	r0, Z+
    2838:	07 94       	ror	r0
    283a:	28 f4       	brcc	.+10     	; 0x2846 <__ftoa_engine+0x9c>
    283c:	e7 0e       	add	r14, r23
    283e:	f8 1e       	adc	r15, r24
    2840:	49 1f       	adc	r20, r25
    2842:	56 1f       	adc	r21, r22
    2844:	c1 1d       	adc	r28, r1
    2846:	77 0f       	add	r23, r23
    2848:	88 1f       	adc	r24, r24
    284a:	99 1f       	adc	r25, r25
    284c:	66 1f       	adc	r22, r22
    284e:	06 94       	lsr	r0
    2850:	a1 f7       	brne	.-24     	; 0x283a <__ftoa_engine+0x90>
    2852:	05 90       	lpm	r0, Z+
    2854:	07 94       	ror	r0
    2856:	28 f4       	brcc	.+10     	; 0x2862 <__ftoa_engine+0xb8>
    2858:	f8 0e       	add	r15, r24
    285a:	49 1f       	adc	r20, r25
    285c:	56 1f       	adc	r21, r22
    285e:	c7 1f       	adc	r28, r23
    2860:	d1 1d       	adc	r29, r1
    2862:	88 0f       	add	r24, r24
    2864:	99 1f       	adc	r25, r25
    2866:	66 1f       	adc	r22, r22
    2868:	77 1f       	adc	r23, r23
    286a:	06 94       	lsr	r0
    286c:	a1 f7       	brne	.-24     	; 0x2856 <__ftoa_engine+0xac>
    286e:	05 90       	lpm	r0, Z+
    2870:	07 94       	ror	r0
    2872:	20 f4       	brcc	.+8      	; 0x287c <__ftoa_engine+0xd2>
    2874:	49 0f       	add	r20, r25
    2876:	56 1f       	adc	r21, r22
    2878:	c7 1f       	adc	r28, r23
    287a:	d8 1f       	adc	r29, r24
    287c:	99 0f       	add	r25, r25
    287e:	66 1f       	adc	r22, r22
    2880:	77 1f       	adc	r23, r23
    2882:	88 1f       	adc	r24, r24
    2884:	06 94       	lsr	r0
    2886:	a9 f7       	brne	.-22     	; 0x2872 <__ftoa_engine+0xc8>
    2888:	84 91       	lpm	r24, Z
    288a:	10 95       	com	r17
    288c:	17 70       	andi	r17, 0x07	; 7
    288e:	41 f0       	breq	.+16     	; 0x28a0 <__ftoa_engine+0xf6>
    2890:	d6 95       	lsr	r29
    2892:	c7 95       	ror	r28
    2894:	57 95       	ror	r21
    2896:	47 95       	ror	r20
    2898:	f7 94       	ror	r15
    289a:	e7 94       	ror	r14
    289c:	1a 95       	dec	r17
    289e:	c1 f7       	brne	.-16     	; 0x2890 <__ftoa_engine+0xe6>
    28a0:	e2 ec       	ldi	r30, 0xC2	; 194
    28a2:	f0 e0       	ldi	r31, 0x00	; 0
    28a4:	68 94       	set
    28a6:	15 90       	lpm	r1, Z+
    28a8:	15 91       	lpm	r17, Z+
    28aa:	35 91       	lpm	r19, Z+
    28ac:	65 91       	lpm	r22, Z+
    28ae:	95 91       	lpm	r25, Z+
    28b0:	05 90       	lpm	r0, Z+
    28b2:	7f e2       	ldi	r23, 0x2F	; 47
    28b4:	73 95       	inc	r23
    28b6:	e1 18       	sub	r14, r1
    28b8:	f1 0a       	sbc	r15, r17
    28ba:	43 0b       	sbc	r20, r19
    28bc:	56 0b       	sbc	r21, r22
    28be:	c9 0b       	sbc	r28, r25
    28c0:	d0 09       	sbc	r29, r0
    28c2:	c0 f7       	brcc	.-16     	; 0x28b4 <__ftoa_engine+0x10a>
    28c4:	e1 0c       	add	r14, r1
    28c6:	f1 1e       	adc	r15, r17
    28c8:	43 1f       	adc	r20, r19
    28ca:	56 1f       	adc	r21, r22
    28cc:	c9 1f       	adc	r28, r25
    28ce:	d0 1d       	adc	r29, r0
    28d0:	7e f4       	brtc	.+30     	; 0x28f0 <__ftoa_engine+0x146>
    28d2:	70 33       	cpi	r23, 0x30	; 48
    28d4:	11 f4       	brne	.+4      	; 0x28da <__ftoa_engine+0x130>
    28d6:	8a 95       	dec	r24
    28d8:	e6 cf       	rjmp	.-52     	; 0x28a6 <__ftoa_engine+0xfc>
    28da:	e8 94       	clt
    28dc:	01 50       	subi	r16, 0x01	; 1
    28de:	30 f0       	brcs	.+12     	; 0x28ec <__ftoa_engine+0x142>
    28e0:	08 0f       	add	r16, r24
    28e2:	0a f4       	brpl	.+2      	; 0x28e6 <__ftoa_engine+0x13c>
    28e4:	00 27       	eor	r16, r16
    28e6:	02 17       	cp	r16, r18
    28e8:	08 f4       	brcc	.+2      	; 0x28ec <__ftoa_engine+0x142>
    28ea:	20 2f       	mov	r18, r16
    28ec:	23 95       	inc	r18
    28ee:	02 2f       	mov	r16, r18
    28f0:	7a 33       	cpi	r23, 0x3A	; 58
    28f2:	28 f0       	brcs	.+10     	; 0x28fe <__ftoa_engine+0x154>
    28f4:	79 e3       	ldi	r23, 0x39	; 57
    28f6:	7d 93       	st	X+, r23
    28f8:	2a 95       	dec	r18
    28fa:	e9 f7       	brne	.-6      	; 0x28f6 <__ftoa_engine+0x14c>
    28fc:	10 c0       	rjmp	.+32     	; 0x291e <__ftoa_engine+0x174>
    28fe:	7d 93       	st	X+, r23
    2900:	2a 95       	dec	r18
    2902:	89 f6       	brne	.-94     	; 0x28a6 <__ftoa_engine+0xfc>
    2904:	06 94       	lsr	r0
    2906:	97 95       	ror	r25
    2908:	67 95       	ror	r22
    290a:	37 95       	ror	r19
    290c:	17 95       	ror	r17
    290e:	17 94       	ror	r1
    2910:	e1 18       	sub	r14, r1
    2912:	f1 0a       	sbc	r15, r17
    2914:	43 0b       	sbc	r20, r19
    2916:	56 0b       	sbc	r21, r22
    2918:	c9 0b       	sbc	r28, r25
    291a:	d0 09       	sbc	r29, r0
    291c:	98 f0       	brcs	.+38     	; 0x2944 <__ftoa_engine+0x19a>
    291e:	23 95       	inc	r18
    2920:	7e 91       	ld	r23, -X
    2922:	73 95       	inc	r23
    2924:	7a 33       	cpi	r23, 0x3A	; 58
    2926:	08 f0       	brcs	.+2      	; 0x292a <__ftoa_engine+0x180>
    2928:	70 e3       	ldi	r23, 0x30	; 48
    292a:	7c 93       	st	X, r23
    292c:	20 13       	cpse	r18, r16
    292e:	b8 f7       	brcc	.-18     	; 0x291e <__ftoa_engine+0x174>
    2930:	7e 91       	ld	r23, -X
    2932:	70 61       	ori	r23, 0x10	; 16
    2934:	7d 93       	st	X+, r23
    2936:	30 f0       	brcs	.+12     	; 0x2944 <__ftoa_engine+0x19a>
    2938:	83 95       	inc	r24
    293a:	71 e3       	ldi	r23, 0x31	; 49
    293c:	7d 93       	st	X+, r23
    293e:	70 e3       	ldi	r23, 0x30	; 48
    2940:	2a 95       	dec	r18
    2942:	e1 f7       	brne	.-8      	; 0x293c <__ftoa_engine+0x192>
    2944:	11 24       	eor	r1, r1
    2946:	ef 90       	pop	r14
    2948:	ff 90       	pop	r15
    294a:	0f 91       	pop	r16
    294c:	1f 91       	pop	r17
    294e:	cf 91       	pop	r28
    2950:	df 91       	pop	r29
    2952:	99 27       	eor	r25, r25
    2954:	87 fd       	sbrc	r24, 7
    2956:	90 95       	com	r25
    2958:	08 95       	ret

0000295a <strnlen_P>:
    295a:	fc 01       	movw	r30, r24
    295c:	05 90       	lpm	r0, Z+
    295e:	61 50       	subi	r22, 0x01	; 1
    2960:	70 40       	sbci	r23, 0x00	; 0
    2962:	01 10       	cpse	r0, r1
    2964:	d8 f7       	brcc	.-10     	; 0x295c <strnlen_P+0x2>
    2966:	80 95       	com	r24
    2968:	90 95       	com	r25
    296a:	8e 0f       	add	r24, r30
    296c:	9f 1f       	adc	r25, r31
    296e:	08 95       	ret

00002970 <strnlen>:
    2970:	fc 01       	movw	r30, r24
    2972:	61 50       	subi	r22, 0x01	; 1
    2974:	70 40       	sbci	r23, 0x00	; 0
    2976:	01 90       	ld	r0, Z+
    2978:	01 10       	cpse	r0, r1
    297a:	d8 f7       	brcc	.-10     	; 0x2972 <strnlen+0x2>
    297c:	80 95       	com	r24
    297e:	90 95       	com	r25
    2980:	8e 0f       	add	r24, r30
    2982:	9f 1f       	adc	r25, r31
    2984:	08 95       	ret

00002986 <fputc>:
    2986:	0f 93       	push	r16
    2988:	1f 93       	push	r17
    298a:	cf 93       	push	r28
    298c:	df 93       	push	r29
    298e:	8c 01       	movw	r16, r24
    2990:	eb 01       	movw	r28, r22
    2992:	8b 81       	ldd	r24, Y+3	; 0x03
    2994:	81 ff       	sbrs	r24, 1
    2996:	1b c0       	rjmp	.+54     	; 0x29ce <fputc+0x48>
    2998:	82 ff       	sbrs	r24, 2
    299a:	0d c0       	rjmp	.+26     	; 0x29b6 <fputc+0x30>
    299c:	2e 81       	ldd	r18, Y+6	; 0x06
    299e:	3f 81       	ldd	r19, Y+7	; 0x07
    29a0:	8c 81       	ldd	r24, Y+4	; 0x04
    29a2:	9d 81       	ldd	r25, Y+5	; 0x05
    29a4:	28 17       	cp	r18, r24
    29a6:	39 07       	cpc	r19, r25
    29a8:	64 f4       	brge	.+24     	; 0x29c2 <fputc+0x3c>
    29aa:	e8 81       	ld	r30, Y
    29ac:	f9 81       	ldd	r31, Y+1	; 0x01
    29ae:	01 93       	st	Z+, r16
    29b0:	f9 83       	std	Y+1, r31	; 0x01
    29b2:	e8 83       	st	Y, r30
    29b4:	06 c0       	rjmp	.+12     	; 0x29c2 <fputc+0x3c>
    29b6:	e8 85       	ldd	r30, Y+8	; 0x08
    29b8:	f9 85       	ldd	r31, Y+9	; 0x09
    29ba:	80 2f       	mov	r24, r16
    29bc:	09 95       	icall
    29be:	00 97       	sbiw	r24, 0x00	; 0
    29c0:	31 f4       	brne	.+12     	; 0x29ce <fputc+0x48>
    29c2:	8e 81       	ldd	r24, Y+6	; 0x06
    29c4:	9f 81       	ldd	r25, Y+7	; 0x07
    29c6:	01 96       	adiw	r24, 0x01	; 1
    29c8:	9f 83       	std	Y+7, r25	; 0x07
    29ca:	8e 83       	std	Y+6, r24	; 0x06
    29cc:	02 c0       	rjmp	.+4      	; 0x29d2 <fputc+0x4c>
    29ce:	0f ef       	ldi	r16, 0xFF	; 255
    29d0:	1f ef       	ldi	r17, 0xFF	; 255
    29d2:	c8 01       	movw	r24, r16
    29d4:	df 91       	pop	r29
    29d6:	cf 91       	pop	r28
    29d8:	1f 91       	pop	r17
    29da:	0f 91       	pop	r16
    29dc:	08 95       	ret

000029de <__ultoa_invert>:
    29de:	fa 01       	movw	r30, r20
    29e0:	aa 27       	eor	r26, r26
    29e2:	28 30       	cpi	r18, 0x08	; 8
    29e4:	51 f1       	breq	.+84     	; 0x2a3a <__ultoa_invert+0x5c>
    29e6:	20 31       	cpi	r18, 0x10	; 16
    29e8:	81 f1       	breq	.+96     	; 0x2a4a <__ultoa_invert+0x6c>
    29ea:	e8 94       	clt
    29ec:	6f 93       	push	r22
    29ee:	6e 7f       	andi	r22, 0xFE	; 254
    29f0:	6e 5f       	subi	r22, 0xFE	; 254
    29f2:	7f 4f       	sbci	r23, 0xFF	; 255
    29f4:	8f 4f       	sbci	r24, 0xFF	; 255
    29f6:	9f 4f       	sbci	r25, 0xFF	; 255
    29f8:	af 4f       	sbci	r26, 0xFF	; 255
    29fa:	b1 e0       	ldi	r27, 0x01	; 1
    29fc:	3e d0       	rcall	.+124    	; 0x2a7a <__ultoa_invert+0x9c>
    29fe:	b4 e0       	ldi	r27, 0x04	; 4
    2a00:	3c d0       	rcall	.+120    	; 0x2a7a <__ultoa_invert+0x9c>
    2a02:	67 0f       	add	r22, r23
    2a04:	78 1f       	adc	r23, r24
    2a06:	89 1f       	adc	r24, r25
    2a08:	9a 1f       	adc	r25, r26
    2a0a:	a1 1d       	adc	r26, r1
    2a0c:	68 0f       	add	r22, r24
    2a0e:	79 1f       	adc	r23, r25
    2a10:	8a 1f       	adc	r24, r26
    2a12:	91 1d       	adc	r25, r1
    2a14:	a1 1d       	adc	r26, r1
    2a16:	6a 0f       	add	r22, r26
    2a18:	71 1d       	adc	r23, r1
    2a1a:	81 1d       	adc	r24, r1
    2a1c:	91 1d       	adc	r25, r1
    2a1e:	a1 1d       	adc	r26, r1
    2a20:	20 d0       	rcall	.+64     	; 0x2a62 <__ultoa_invert+0x84>
    2a22:	09 f4       	brne	.+2      	; 0x2a26 <__ultoa_invert+0x48>
    2a24:	68 94       	set
    2a26:	3f 91       	pop	r19
    2a28:	2a e0       	ldi	r18, 0x0A	; 10
    2a2a:	26 9f       	mul	r18, r22
    2a2c:	11 24       	eor	r1, r1
    2a2e:	30 19       	sub	r19, r0
    2a30:	30 5d       	subi	r19, 0xD0	; 208
    2a32:	31 93       	st	Z+, r19
    2a34:	de f6       	brtc	.-74     	; 0x29ec <__ultoa_invert+0xe>
    2a36:	cf 01       	movw	r24, r30
    2a38:	08 95       	ret
    2a3a:	46 2f       	mov	r20, r22
    2a3c:	47 70       	andi	r20, 0x07	; 7
    2a3e:	40 5d       	subi	r20, 0xD0	; 208
    2a40:	41 93       	st	Z+, r20
    2a42:	b3 e0       	ldi	r27, 0x03	; 3
    2a44:	0f d0       	rcall	.+30     	; 0x2a64 <__ultoa_invert+0x86>
    2a46:	c9 f7       	brne	.-14     	; 0x2a3a <__ultoa_invert+0x5c>
    2a48:	f6 cf       	rjmp	.-20     	; 0x2a36 <__ultoa_invert+0x58>
    2a4a:	46 2f       	mov	r20, r22
    2a4c:	4f 70       	andi	r20, 0x0F	; 15
    2a4e:	40 5d       	subi	r20, 0xD0	; 208
    2a50:	4a 33       	cpi	r20, 0x3A	; 58
    2a52:	18 f0       	brcs	.+6      	; 0x2a5a <__ultoa_invert+0x7c>
    2a54:	49 5d       	subi	r20, 0xD9	; 217
    2a56:	31 fd       	sbrc	r19, 1
    2a58:	40 52       	subi	r20, 0x20	; 32
    2a5a:	41 93       	st	Z+, r20
    2a5c:	02 d0       	rcall	.+4      	; 0x2a62 <__ultoa_invert+0x84>
    2a5e:	a9 f7       	brne	.-22     	; 0x2a4a <__ultoa_invert+0x6c>
    2a60:	ea cf       	rjmp	.-44     	; 0x2a36 <__ultoa_invert+0x58>
    2a62:	b4 e0       	ldi	r27, 0x04	; 4
    2a64:	a6 95       	lsr	r26
    2a66:	97 95       	ror	r25
    2a68:	87 95       	ror	r24
    2a6a:	77 95       	ror	r23
    2a6c:	67 95       	ror	r22
    2a6e:	ba 95       	dec	r27
    2a70:	c9 f7       	brne	.-14     	; 0x2a64 <__ultoa_invert+0x86>
    2a72:	00 97       	sbiw	r24, 0x00	; 0
    2a74:	61 05       	cpc	r22, r1
    2a76:	71 05       	cpc	r23, r1
    2a78:	08 95       	ret
    2a7a:	9b 01       	movw	r18, r22
    2a7c:	ac 01       	movw	r20, r24
    2a7e:	0a 2e       	mov	r0, r26
    2a80:	06 94       	lsr	r0
    2a82:	57 95       	ror	r21
    2a84:	47 95       	ror	r20
    2a86:	37 95       	ror	r19
    2a88:	27 95       	ror	r18
    2a8a:	ba 95       	dec	r27
    2a8c:	c9 f7       	brne	.-14     	; 0x2a80 <__ultoa_invert+0xa2>
    2a8e:	62 0f       	add	r22, r18
    2a90:	73 1f       	adc	r23, r19
    2a92:	84 1f       	adc	r24, r20
    2a94:	95 1f       	adc	r25, r21
    2a96:	a0 1d       	adc	r26, r0
    2a98:	08 95       	ret

00002a9a <__prologue_saves__>:
    2a9a:	2f 92       	push	r2
    2a9c:	3f 92       	push	r3
    2a9e:	4f 92       	push	r4
    2aa0:	5f 92       	push	r5
    2aa2:	6f 92       	push	r6
    2aa4:	7f 92       	push	r7
    2aa6:	8f 92       	push	r8
    2aa8:	9f 92       	push	r9
    2aaa:	af 92       	push	r10
    2aac:	bf 92       	push	r11
    2aae:	cf 92       	push	r12
    2ab0:	df 92       	push	r13
    2ab2:	ef 92       	push	r14
    2ab4:	ff 92       	push	r15
    2ab6:	0f 93       	push	r16
    2ab8:	1f 93       	push	r17
    2aba:	cf 93       	push	r28
    2abc:	df 93       	push	r29
    2abe:	cd b7       	in	r28, 0x3d	; 61
    2ac0:	de b7       	in	r29, 0x3e	; 62
    2ac2:	ca 1b       	sub	r28, r26
    2ac4:	db 0b       	sbc	r29, r27
    2ac6:	0f b6       	in	r0, 0x3f	; 63
    2ac8:	f8 94       	cli
    2aca:	de bf       	out	0x3e, r29	; 62
    2acc:	0f be       	out	0x3f, r0	; 63
    2ace:	cd bf       	out	0x3d, r28	; 61
    2ad0:	09 94       	ijmp

00002ad2 <__epilogue_restores__>:
    2ad2:	2a 88       	ldd	r2, Y+18	; 0x12
    2ad4:	39 88       	ldd	r3, Y+17	; 0x11
    2ad6:	48 88       	ldd	r4, Y+16	; 0x10
    2ad8:	5f 84       	ldd	r5, Y+15	; 0x0f
    2ada:	6e 84       	ldd	r6, Y+14	; 0x0e
    2adc:	7d 84       	ldd	r7, Y+13	; 0x0d
    2ade:	8c 84       	ldd	r8, Y+12	; 0x0c
    2ae0:	9b 84       	ldd	r9, Y+11	; 0x0b
    2ae2:	aa 84       	ldd	r10, Y+10	; 0x0a
    2ae4:	b9 84       	ldd	r11, Y+9	; 0x09
    2ae6:	c8 84       	ldd	r12, Y+8	; 0x08
    2ae8:	df 80       	ldd	r13, Y+7	; 0x07
    2aea:	ee 80       	ldd	r14, Y+6	; 0x06
    2aec:	fd 80       	ldd	r15, Y+5	; 0x05
    2aee:	0c 81       	ldd	r16, Y+4	; 0x04
    2af0:	1b 81       	ldd	r17, Y+3	; 0x03
    2af2:	aa 81       	ldd	r26, Y+2	; 0x02
    2af4:	b9 81       	ldd	r27, Y+1	; 0x01
    2af6:	ce 0f       	add	r28, r30
    2af8:	d1 1d       	adc	r29, r1
    2afa:	0f b6       	in	r0, 0x3f	; 63
    2afc:	f8 94       	cli
    2afe:	de bf       	out	0x3e, r29	; 62
    2b00:	0f be       	out	0x3f, r0	; 63
    2b02:	cd bf       	out	0x3d, r28	; 61
    2b04:	ed 01       	movw	r28, r26
    2b06:	08 95       	ret

00002b08 <_exit>:
    2b08:	f8 94       	cli

00002b0a <__stop_program>:
    2b0a:	ff cf       	rjmp	.-2      	; 0x2b0a <__stop_program>
